******************************************************************************
                  TI ARM Linker PC v16.9.1                     
******************************************************************************
>> Linked Thu Aug 03 15:05:16 2017

OUTPUT FILE NAME:   <Agents-AOCS.out>
ENTRY POINT SYMBOL: "_c_int00"  address: 0000e711


MEMORY CONFIGURATION

         name            origin    length      used     unused   attr    fill
----------------------  --------  ---------  --------  --------  ----  --------
  MAIN                  00000000   00040000  000144a6  0002bb5a  R  X
  INFO                  00200000   00004000  00000000  00004000  R  X
  SRAM_CODE             01000000   00010000  00000000  00010000  RW X
  SRAM_DATA             20000000   00010000  00008fce  00007032  RW  


SEGMENT ALLOCATION MAP

run origin  load origin   length   init length attrs members
----------  ----------- ---------- ----------- ----- -------
00000000    00000000    000144a8   000144a8    r-x
  00000000    00000000    0000003c   0000003c    r-- .resetVecs
  0000003c    0000003c    00000004   00000004    r-- .init_array
  00000040    00000040    0001195a   0001195a    r-x .text
  0001199c    0001199c    000027dc   000027dc    r-- .const
  00014178    00014178    00000330   00000330    r-- .cinit
20000000    20000000    00000140   00000000    rw-
  20000000    20000000    00000140   00000000    rw- .vecs
20000180    20000180    00008b91   00000000    rw-
  20000180    20000180    00008045   00000000    rw- .bss
  200081c8    200081c8    00000b49   00000000    rw- .data
2000fd00    2000fd00    00000300   00000000    rw-
  2000fd00    2000fd00    00000300   00000000    rw- .stack


SECTION ALLOCATION MAP

 output                                  attributes/
section   page    origin      length       input sections
--------  ----  ----------  ----------   ----------------
.init_array 
*          0    0000003c    00000004     
                  0000003c    00000004     main.obj (.init_array)

.text      0    00000040    0001195a     
                  00000040    0000113e     rtsv7M4_T_le_v4SPD16_eabi.lib : _printfi.obj (.text)
                  0000117e    00000002     power_tirtos_MSP432P401R.aem4f : PowerMSP432_tirtos.oem4f (.text:PowerMSP432_initPolicy)
                  00001180    00000924     MAES_lib.lib : Agent_Platform.obj (.text)
                  00001aa4    00000736     bmi160_support.obj (.text:bmi160_config_running_mode)
                  000021da    00000002     rtsv7M4_T_le_v4SPD16_eabi.lib : i_div0.obj (.text)
                  000021dc    0000071c     MAES_lib.lib : Agent_Msg.obj (.text)
                  000028f8    00000588     rtsv7M4_T_le_v4SPD16_eabi.lib : e_powf.obj (.text)
                  00002e80    00000430     sysbios.aem4f : BIOS.obj (.text:ti_sysbios_family_arm_m3_Hwi_excDumpRegs__I)
                  000032b0    00000420     supporting_functions.obj (.text:_ZN20supporting_functions4initEv)
                  000036d0    000003bc     bmi160.obj (.text:bmi160_read_fifo_header_data)
                  00003a8c    000003a4     bmi160.obj (.text:bmi160_read_bmm150_mag_trim)
                  00003e30    0000034c     ti.targets.arm.rtsarm.aem4f : System.oem4f (.text:xdc_runtime_System_doPrint__I)
                  0000417c    00000324     rtsv7M4_T_le_v4SPD16_eabi.lib : trgdrv.obj (.text)
                  000044a0    00000314     sysbios.aem4f : BIOS.obj (.text:ti_sysbios_knl_Semaphore_pend__E)
                  000047b4    000002ac     dsplib-msp432.lib : arm_mat_inverse_f32.obj (.text:arm_mat_inverse_f32)
                  00004a60    00000274     sysbios.aem4f : BIOS.obj (.text:ti_sysbios_knl_Task_Instance_finalize__E)
                  00004cd4    00000264     drivers_MSP432P401R.aem4f : PowerMSP432.oem4f (.text:Power_sleep)
                  00004f38    00000260                               : UARTMSP432.oem4f (.text:UARTMSP432_open)
                  00005198    00000258     sysbios.aem4f : BIOS.obj (.text:ti_sysbios_heaps_HeapMem_free__E)
                  000053f0    00000248                   : BIOS.obj (.text:ti_sysbios_heaps_HeapMem_alloc__E)
                  00005638    00000214     bmi160.obj (.text:bmi160_bmm150_mag_interface_init)
                  0000584c    00000004     msp432p4xx_driverlib.lib : cpu.o (.text:CPU_wfi)
                  00005850    00000200     sysbios.aem4f : BIOS.obj (.text:ti_sysbios_knl_Task_sleep__E)
                  00005a50    000001fc     supporting_functions.obj (.text:_ZN20supporting_functions14updateJacobianEv)
                  00005c4c    00000004     tirtosport.aem4f : HwiP_tirtos.oem4f (.text:HwiP_disable)
                  00005c50    000001fc     sysbios.aem4f : BIOS.obj (.text:ti_sysbios_family_arm_m3_Hwi_excHandlerMax__I)
                  00005e4c    000001f4     rtsv7M4_T_le_v4SPD16_eabi.lib : ull_div_t2.obj (.text)
                  00006040    000001f4     sysbios.aem4f : BIOS.obj (.text:ti_sysbios_knl_Task_Instance_init__E)
                  00006234    000001ec     bmi160.obj (.text:bmi160_set_bmm150_mag_presetmode)
                  00006420    000001c8     kalman.obj (.text:_ZN13kalman_filter6actionEv)
                  000065e8    000001b8     bmi160.obj (.text:bmi160_accel_foc_trigger_xyz)
                  000067a0    000001b6     rtsv7M4_T_le_v4SPD16_eabi.lib : fd_add_t2.obj (.text)
                  00006956    00000002     main_pem4f.oem4f (.text:ti_sysbios_BIOS_nullFunc__I)
                  00006958    000001b0     sysbios.aem4f : BIOS.obj (.text:ti_sysbios_gates_GateMutexPri_enter__E)
                  00006b08    000001a0     msp432p4xx_driverlib.lib : pcm.o (.text:__PCM_setPowerStateAdvanced)
                  00006ca8    0000019c     sensors.obj (.text:_Z7uartFxnjj)
                  00006e44    00000194     supporting_functions.obj (.text:_ZN20supporting_functions11getRotationEv)
                  00006fd8    00000188     sysbios.aem4f : BIOS.obj (.text:ti_sysbios_knl_Task_setPri__E)
                  00007160    00000178     drivers_MSP432P401R.aem4f : I2CMSP432.oem4f (.text:I2CMSP432_open)
                  000072d8    00000174     sysbios.aem4f : BIOS.obj (.text:ti_sysbios_family_arm_m3_Hwi_excBusFault__I)
                  0000744c    00000170     rtsv7M4_T_le_v4SPD16_eabi.lib : e_sqrt.obj (.text)
                  000075bc    0000016c     bmi160.obj (.text:bmi160_set_intr_enable_0)
                  00007728    00000164     sysbios.aem4f : BIOS.obj (.text:ti_sysbios_family_arm_m3_Hwi_excUsageFault__I)
                  0000788c    00000004     msp432p4xx_driverlib.lib : i2c.o (.text:I2C_setSlaveAddress)
                  00007890    00000158     sysbios.aem4f : BIOS.obj (.text:ti_sysbios_knl_Mailbox_Instance_init__E)
                  000079e8    00000148                   : BIOS.obj (.text:ti_sysbios_family_arm_m3_Hwi_excMemFault__I)
                  00007b30    00000140     drivers_MSP432P401R.aem4f : GPIOMSP432.oem4f (.text:GPIO_setConfig)
                  00007c70    00000140     sysbios.aem4f : BIOS.obj (.text:ti_sysbios_knl_Semaphore_post__E)
                  00007db0    0000013c                   : BIOS.obj (.text:ti_sysbios_heaps_HeapMem_Instance_init__E)
                  00007eec    00000004     drivers_MSP432P401R.aem4f : List.oem4f (.text:List_head)
                  00007ef0    0000013c     sysbios.aem4f : BIOS.obj (.text:ti_sysbios_knl_Clock_workFunc__E)
                  0000802c    00000004     drivers_MSP432P401R.aem4f : List.oem4f (.text:List_next)
                  00008030    00000138     sysbios.aem4f : BIOS.obj (.text:ti_sysbios_family_arm_m3_Hwi_dispatchC__I)
                  00008168    00000138     main_pem4f.oem4f (.text:ti_uia_loggers_LoggerStopMode_writeMemoryRange__E)
                  000082a0    00000136     rtsv7M4_T_le_v4SPD16_eabi.lib : fd_div_t2.obj (.text)
                  000083d6    00000002     main_pem4f.oem4f (.text:ti_uia_loggers_LoggerStopMode_setFilterLevel__E)
                  000083d8    0000011c     bmi160.obj (.text:bmi160_set_foc_gyro_enable)
                  000084f4    00000004     drivers_MSP432P401R.aem4f : PowerMSP432.oem4f (.text:PowerMSP432_getNumPerfLevels)
                  000084f8    0000011c     sysbios.aem4f : BIOS.obj (.text:ti_sysbios_knl_Clock_Instance_init__E)
                  00008614    00000004     rtsv7M4_T_le_v4SPD16_eabi.lib : error.obj (.text)
                  00008618    0000011c     sysbios.aem4f : BIOS.obj (.text:ti_sysbios_knl_Swi_run__I)
                  00008734    00000118     drivers_MSP432P401R.aem4f : I2CMSP432.oem4f (.text:I2CMSP432_hwiIntFxn)
                  0000884c    00000118     ti.targets.arm.rtsarm.aem4f : Error.oem4f (.text:xdc_runtime_Error_policyDefault__E)
                  00008964    00000004     main_pem4f.oem4f (.text:ti_sysbios_BIOS_RtsGateProxy_enter__E)
                  00008968    00000110     sysbios.aem4f : BIOS.obj (.text:ti_sysbios_knl_Task_schedule__I)
                  00008a78    0000010c     supporting_functions.obj (.text:_ZN20supporting_functions16get_measurementsEv)
                  00008b84    0000010c     bmi160.obj (.text:bmi160_bmm150_mag_set_power_mode)
                  00008c90    0000010c     main_pem4f.oem4f (.text:ti_uia_loggers_LoggerStopMode_write8__E)
                  00008d9c    00000100     ti.targets.arm.rtsarm.aem4f : Core-mem.oem4f (.text:xdc_runtime_Core_createObject__I)
                  00008e9c    000000fc     rtsv7M4_T_le_v4SPD16_eabi.lib : fd_mul_t2.obj (.text)
                  00008f98    000000fc                                   : s_scalbn.obj (.text)
                  00009094    00000004     main_pem4f.oem4f (.text:ti_sysbios_BIOS_RtsGateProxy_leave__E)
                  00009098    000000fc     sysbios.aem4f : BIOS.obj (.text:ti_sysbios_knl_Task_postInit__I)
                  00009194    00000004     main_pem4f.oem4f (.text:ti_sysbios_family_arm_m3_Hwi_destruct)
                  00009198    000000fc     sysbios.aem4f : BIOS.obj (.text:ti_sysbios_knl_Task_startCore__E)
                  00009294    000000f8     sensors.obj (.text:_ZN14sensor_control5setupEv)
                  0000938c    000000f8     supporting_functions.obj (.text:_ZN20supporting_functions7updateQEv)
                  00009484    00000004     main_pem4f.oem4f (.text:ti_sysbios_family_arm_m3_TaskSupport_Module__startupDone__S)
                  00009488    000000f8     sysbios.aem4f : BIOS.obj (.text:ti_sysbios_utils_Load_updateThreadContexts__E)
                  00009580    000000f8     ti.targets.arm.rtsarm.aem4f : Startup.oem4f (.text:xdc_runtime_Startup_startMods__I)
                  00009678    000000f8     main_pem4f.oem4f (.text:xdc_runtime_System_printfExtend__I)
                  00009770    000000f4     main_pem4f.oem4f (.text:ti_uia_loggers_LoggerStopMode_write4__E)
                  00009864    000000f0     drivers_MSP432P401R.aem4f : PowerMSP432.oem4f (.text:initPerfControl)
                  00009954    000000ec     MAES_lib.lib : Behaviour.obj (.text)
                  00009a40    000000ec     sysbios.aem4f : m3_Hwi_asm.obj (.text:ti_sysbios_family_arm_m3_Hwi_dispatch__I)
                  00009b2c    000000e8     dsplib-msp432.lib : arm_mat_mult_f32.obj (.text:arm_mat_mult_f32)
                  00009c14    000000e8     main_pem4f.oem4f (.text:ti_uia_loggers_LoggerStopMode_write1__E)
                  00009cfc    000000e8     main_pem4f.oem4f (.text:ti_uia_loggers_LoggerStopMode_write2__E)
                  00009de4    000000e0     msp432p4xx_driverlib.lib : cs.o (.text:CS_initClockSignal)
                  00009ec4    000000dc                              : pcm.o (.text:__PCM_setPowerModeAdvanced)
                  00009fa0    000000d8     main_pem4f.oem4f (.text:ti_uia_loggers_LoggerStopMode_write0__E)
                  0000a078    000000d4     bmi160.obj (.text:bmi160_set_bmm150_mag_and_secondary_if_power_mode)
                  0000a14c    000000d4     rtsv7M4_T_le_v4SPD16_eabi.lib : s_scalbnf.obj (.text)
                  0000a220    000000cc     supporting_functions.obj (.text:_ZN20supporting_functions9updatePhiEv)
                  0000a2ec    000000cc     ti.targets.arm.rtsarm.aem4f : Core-smem.oem4f (.text:xdc_runtime_Core_constructObject__I)
                  0000a3b8    000000c8     sysbios.aem4f : BIOS.obj (.text:ti_sysbios_knl_Task_exit__E)
                  0000a480    000000c4     kalman.obj (.text:_ZN13kalman_filter5setupEv)
                  0000a544    00000004     main_pem4f.oem4f (.text:ti_sysbios_heaps_HeapMem_Module_GateProxy_enter__E)
                  0000a548    000000c4     sysbios.aem4f : BIOS.obj (.text:ti_sysbios_utils_Load_logLoads__I)
                  0000a60c    000000bc     rtsv7M4_T_le_v4SPD16_eabi.lib : typeinfo_.obj (.text)
                  0000a6c8    000000bc     sysbios.aem4f : BIOS.obj (.text:ti_sysbios_family_arm_m3_Hwi_excDebugMon__I)
                  0000a784    00000004     main_pem4f.oem4f (.text:ti_sysbios_heaps_HeapMem_Module_GateProxy_leave__E)
                  0000a788    000000bc     sysbios.aem4f : BIOS.obj (.text:ti_sysbios_family_arm_m3_Hwi_excHardFault__I)
                  0000a844    000000b8     bmi160.obj (.text:bmi160_set_intr_enable_2)
                  0000a8fc    00000004     main_pem4f.oem4f (.text:ti_sysbios_knl_Clock_TimerProxy_getMaxTicks__E)
                  0000a900    000000b8     sysbios.aem4f : BIOS.obj (.text:ti_sysbios_knl_Task_unblockI__E)
                  0000a9b8    000000b4     supporting_functions.obj (.text:_ZN20supporting_functions11normalizingEv)
                  0000aa6c    00000004     main_pem4f.oem4f (.text:ti_sysbios_knl_Clock_destruct)
                  0000aa70    000000b4     sysbios.aem4f : BIOS.obj (.text:ti_sysbios_gates_GateMutex_enter__E)
                  0000ab24    00000004     main_pem4f.oem4f (.text:ti_sysbios_knl_Mailbox_delete)
                  0000ab28    000000b4     sysbios.aem4f : BIOS.obj (.text:ti_sysbios_knl_Task_checkStacks__E)
                  0000abdc    000000b0     drivers_MSP432P401R.aem4f : UARTMSP432.oem4f (.text:UARTMSP432_readPolling)
                  0000ac8c    000000b0     supporting_functions.obj (.text:_ZN20supporting_functions7updatefEv)
                  0000ad3c    000000b0     msp432p4xx_driverlib.lib : pcm.o (.text:__PCM_setCoreVoltageLevelAdvanced)
                  0000adec    00000004     main_pem4f.oem4f (.text:ti_sysbios_knl_Queue_destruct)
                  0000adf0    000000b0     sysbios.aem4f : BIOS.obj (.text:ti_sysbios_knl_Task_yield__E)
                  0000aea0    000000b0                   : BIOS.obj (.text:ti_sysbios_utils_Load_idleFxn__E)
                  0000af50    000000b0                   : BIOS.obj (.text:ti_sysbios_utils_Load_updateLoads__E)
                  0000b000    000000ac                   : BIOS.obj (.text:ti_sysbios_knl_Swi_post__E)
                  0000b0ac    00000004     main_pem4f.oem4f (.text:ti_sysbios_knl_Semaphore_destruct)
                  0000b0b0    000000a8     sysbios.aem4f : BIOS.obj (.text:ti_sysbios_family_arm_msp432_Timer_periodicStub__E)
                  0000b158    000000a8                   : BIOS.obj (.text:ti_sysbios_knl_Task_blockI__E)
                  0000b200    000000a4     drivers_MSP432P401R.aem4f : UARTMSP432.oem4f (.text:UARTMSP432_control)
                  0000b2a4    00000004     main_pem4f.oem4f (.text:ti_sysbios_knl_Task_delete)
                  0000b2a8    000000a4     sysbios.aem4f : BIOS.obj (.text:ti_sysbios_knl_Clock_Instance_finalize__E)
                  0000b34c    000000a0     auto_init.aem4f : auto_init.oem4f (.text)
                  0000b3ec    000000a0     ti.targets.arm.rtsarm.aem4f : Text.oem4f (.text:xdc_runtime_Text_putMod__E)
                  0000b48c    0000009c     supporting_functions.obj (.text:_ZN20supporting_functions7updateREv)
                  0000b528    0000009c     drivers_MSP432P401R.aem4f : UARTMSP432.oem4f (.text:readTaskBlocking)
                  0000b5c4    0000009c     rtsv7M4_T_le_v4SPD16_eabi.lib : memcpy_t2.obj (.text)
                  0000b660    0000009c     sysbios.aem4f : BIOS.obj (.text:ti_sysbios_knl_Semaphore_Instance_init__E)
                  0000b6fc    0000009a     ti.targets.arm.rtsarm.aem4f : Text.oem4f (.text:xdc_runtime_Text_putSite__E)
                  0000b796    00000002     ti.uia.loggers.aem4f : LoggerStopMode.oem4f (.text:ti_uia_loggers_LoggerStopMode_setPriority__E)
                  0000b798    00000098     main.obj (.text:__sti___8_main_cpp_6977f587)
                  0000b830    00000098     main.obj (.text:main)
                  0000b8c8    00000098     sysbios.aem4f : BIOS.obj (.text:ti_sysbios_knl_Mailbox_post__E)
                  0000b960    00000094     msp432p4xx_driverlib.lib : uart.o (.text:UART_initModule)
                  0000b9f4    00000094     dsplib-msp432.lib : arm_mat_add_f32.obj (.text:arm_mat_add_f32)
                  0000ba88    00000094                       : arm_mat_sub_f32.obj (.text:arm_mat_sub_f32)
                  0000bb1c    00000094     rtsv7M4_T_le_v4SPD16_eabi.lib : snprintf.obj (.text)
                  0000bbb0    00000094     sysbios.aem4f : BIOS.obj (.text:ti_sysbios_family_arm_m3_Hwi_Instance_init__E)
                  0000bc44    00000004     ti.uia.loggers.aem4f : LoggerStopMode.oem4f (.text:ti_uia_loggers_LoggerStopMode_getContents__E)
                  0000bc48    00000094     sysbios.aem4f : BIOS.obj (.text:ti_sysbios_family_arm_m3_Hwi_initNVIC__E)
                  0000bcdc    00000092     drivers_MSP432P401R.aem4f : I2CMSP432.oem4f (.text:I2CMSP432_cancel)
                  0000bd6e    00000002     --HOLE-- [fill = 0]
                  0000bd70    00000090     bmi160.obj (.text:bmi160_set_intr_fifo_wm)
                  0000be00    00000090     bmi160.obj (.text:bmi160_set_intr_level)
                  0000be90    00000090     bmi160.obj (.text:bmi160_set_output_enable)
                  0000bf20    00000090     sysbios.aem4f : BIOS.obj (.text:ti_sysbios_knl_Task_Module_startup__E)
                  0000bfb0    00000090                   : BIOS.obj (.text:ti_sysbios_utils_Load_startup__E)
                  0000c040    00000090     ti.uia.loggers.aem4f : LoggerStopMode.oem4f (.text:ti_uia_loggers_LoggerStopMode_initQueueDescriptor__E)
                  0000c0d0    0000008c     drivers_MSP432P401R.aem4f : I2CMSP432.oem4f (.text:I2CMSP432_transfer)
                  0000c15c    0000008c     sysbios.aem4f : m3_TaskSupport_asm.obj (.text:ti_sysbios_family_arm_m3_TaskSupport_buildTaskStack)
                  0000c1e8    0000008c                   : BIOS.obj (.text:ti_sysbios_knl_Mailbox_pend__E)
                  0000c274    0000008a     drivers_MSP432P401R.aem4f : UARTMSP432.oem4f (.text:UARTMSP432_close)
                  0000c2fe    00000002     --HOLE-- [fill = 0]
                  0000c300    00000088     MAES_lib.lib : Agent.obj (.text)
                  0000c388    00000088     sysbios.aem4f : BIOS.obj (.text:ti_sysbios_family_arm_msp432_Timer_Module_startup__E)
                  0000c410    00000088                   : BIOS.obj (.text:ti_sysbios_knl_Mailbox_Module_startup__E)
                  0000c498    00000086     rtsv7M4_T_le_v4SPD16_eabi.lib : fd_cmp_t2.obj (.text:__aeabi_cdcmple)
                  0000c51e    00000086                                   : fd_cmp_t2.obj (.text:__aeabi_cdrcmple)
                  0000c5a4    00000084     drivers_MSP432P401R.aem4f : UARTMSP432.oem4f (.text:initHw)
                  0000c628    00000084     sysbios.aem4f : BIOS.obj (.text:ti_sysbios_family_arm_m3_Hwi_postInit__I)
                  0000c6ac    00000084     drivers_MSP432P401R.aem4f : UARTMSP432.oem4f (.text:writeData)
                  0000c730    00000082                               : UARTMSP432.oem4f (.text:readIsrTextCallback)
                  0000c7b2    00000002     --HOLE-- [fill = 0]
                  0000c7b4    00000080     bmi160.obj (.text:bmi160_read_mag_xyzr)
                  0000c834    00000004     main_pem4f.oem4f (.text:ti_uia_loggers_LoggerStopMode_getFilterLevel__E)
                  0000c838    00000080     sysbios.aem4f : BIOS.obj (.text:ti_sysbios_family_arm_msp432_Timer_startup__E)
                  0000c8b8    0000007c     msp432p4xx_driverlib.lib : pcm.o (.text:PCM_gotoLPM3)
                  0000c934    0000007a     drivers_MSP432P401R.aem4f : UARTMSP432.oem4f (.text:UARTMSP432_write)
                  0000c9ae    0000007a                               : UARTMSP432.oem4f (.text:readTaskCallback)
                  0000ca28    0000007a     rtsv7M4_T_le_v4SPD16_eabi.lib : memset_t2.obj (.text)
                  0000caa2    00000078     dsplib-msp432.lib : arm_mat_scale_f32.obj (.text:arm_mat_scale_f32)
                  0000cb1a    00000002     --HOLE-- [fill = 0]
                  0000cb1c    00000078     bmi160.obj (.text:bmi160_set_gyro_output_data_rate)
                  0000cb94    00000074     sensors.obj (.text:_ZN14sensor_control6actionEv)
                  0000cc08    00000074     drivers_MSP432P401R.aem4f : UARTMSP432.oem4f (.text:readIsrTextBlocking)
                  0000cc7c    00000004     ti.uia.loggers.aem4f : LoggerStopMode.oem4f (.text:ti_uia_loggers_LoggerStopMode_getInstanceId__E)
                  0000cc80    00000074     sysbios.aem4f : BIOS.obj (.text:ti_sysbios_family_arm_m3_TimestampProvider_get64__E)
                  0000ccf4    00000004     ti.uia.loggers.aem4f : LoggerStopMode.oem4f (.text:ti_uia_loggers_LoggerStopMode_getMaxLength__E)
                  0000ccf8    00000074     sysbios.aem4f : BIOS.obj (.text:ti_sysbios_knl_Clock_start__E)
                  0000cd6c    00000074     ti.uia.runtime.aem4f : QueueDescriptor.oem4f (.text:ti_uia_runtime_QueueDescriptor_addToList__E)
                  0000cde0    00000072     dsplib-msp432.lib : arm_mat_trans_f32.obj (.text:arm_mat_trans_f32)
                  0000ce52    00000002     --HOLE-- [fill = 0]
                  0000ce54    00000070     bmi160.obj (.text:bmi160_set_accel_range)
                  0000cec4    00000004     ti.uia.loggers.aem4f : LoggerStopMode.oem4f (.text:ti_uia_loggers_LoggerStopMode_getPriority__E)
                  0000cec8    00000070     sysbios.aem4f : BIOS.obj (.text:ti_sysbios_knl_Mailbox_Instance_finalize__E)
                  0000cf38    0000006e     rtsv7M4_T_le_v4SPD16_eabi.lib : fd_tos_t2.obj (.text)
                  0000cfa6    00000002     --HOLE-- [fill = 0]
                  0000cfa8    0000006d     ti.targets.arm.rtsarm.aem4f : System.oem4f (.text:xdc_runtime_System_formatNum__I)
                  0000d015    00000003     --HOLE-- [fill = 0]
                  0000d018    0000006c     bmi160.obj (.text:bmi160_bmm150_mag_compensate_X)
                  0000d084    0000006c     bmi160.obj (.text:bmi160_bmm150_mag_compensate_Y)
                  0000d0f0    0000006c     bmi160.obj (.text:bmi160_bmm150_mag_wakeup)
                  0000d15c    00000004     ti.uia.loggers.aem4f : LoggerStopMode.oem4f (.text:ti_uia_loggers_LoggerStopMode_getTransferType__E)
                  0000d160    0000006c     sysbios.aem4f : BIOS.obj (.text:ti_sysbios_gates_GateMutexPri_leave__E)
                  0000d1cc    00000004     ti.targets.arm.rtsarm.aem4f : Error.oem4f (.text:xdc_runtime_Error_getSite__E)
                  0000d1d0    0000006c     sysbios.aem4f : BIOS.obj (.text:ti_sysbios_knl_Swi_restoreHwi__E)
                  0000d23c    00000004     main_pem4f.oem4f (.text:xdc_runtime_System_Module_GateProxy_enter__E)
                  0000d240    0000006c     sysbios.aem4f : BIOS.obj (.text:ti_sysbios_utils_Load_taskCreateHook__E)
                  0000d2ac    0000006c     ti.targets.arm.rtsarm.aem4f : Error.oem4f (.text:xdc_runtime_Error_print__E)
                  0000d318    0000006c                                 : Memory.oem4f (.text:xdc_runtime_Memory_alloc__E)
                  0000d384    00000068     bmi160.obj (.text:bmi160_get_gyro_offset_compensation_xaxis)
                  0000d3ec    00000068     rtsv7M4_T_le_v4SPD16_eabi.lib : copy_decompress_lzss.obj (.text:decompress:lzss)
                  0000d454    00000068     drivers_MSP432P401R.aem4f : I2CMSP432.oem4f (.text:primeTransfer)
                  0000d4bc    00000068     rtsv7M4_T_le_v4SPD16_eabi.lib : trgmsg.obj (.text)
                  0000d524    00000004     main_pem4f.oem4f (.text:xdc_runtime_System_Module_GateProxy_leave__E)
                  0000d528    00000068     sysbios.aem4f : BIOS.obj (.text:ti_sysbios_utils_Load_addTask__E)
                  0000d590    00000066     drivers_MSP432P401R.aem4f : I2CMSP432.oem4f (.text:I2CMSP432_close)
                  0000d5f6    00000066     ti.uia.loggers.aem4f : LoggerStopMode.oem4f (.text:ti_uia_loggers_LoggerStopMode_flush__E)
                  0000d65c    00000066     ti.targets.arm.rtsarm.aem4f : Core-mem.oem4f (.text:xdc_runtime_Core_deleteObject__I)
                  0000d6c2    00000064     drivers_MSP432P401R.aem4f : UARTMSP432.oem4f (.text:UARTMSP432_writePolling)
                  0000d726    00000002     --HOLE-- [fill = 0]
                  0000d728    00000064     bmi160_support.obj (.text:bmi160_interrupt_configuration)
                  0000d78c    00000064     bmi160.obj (.text:bmi160_set_accel_bw)
                  0000d7f0    00000064     bmi160.obj (.text:bmi160_set_accel_output_data_rate)
                  0000d854    00000064     bmi160.obj (.text:bmi160_set_fifo_accel_enable)
                  0000d8b8    00000064     bmi160.obj (.text:bmi160_set_fifo_gyro_enable)
                  0000d91c    00000064     bmi160.obj (.text:bmi160_set_fifo_header_enable)
                  0000d980    00000064     bmi160.obj (.text:bmi160_set_fifo_mag_enable)
                  0000d9e4    00000064     bmi160.obj (.text:bmi160_set_fifo_stop_on_full)
                  0000da48    00000064     bmi160.obj (.text:bmi160_set_fifo_time_enable)
                  0000daac    00000064     bmi160.obj (.text:bmi160_set_gyro_bw)
                  0000db10    00000064     bmi160.obj (.text:bmi160_set_gyro_range)
                  0000db74    00000064     bmi160.obj (.text:bmi160_set_gyro_sleep_state)
                  0000dbd8    00000064     bmi160.obj (.text:bmi160_set_gyro_sleep_trigger)
                  0000dc3c    00000064     bmi160.obj (.text:bmi160_set_gyro_wakeup_intr)
                  0000dca0    00000064     bmi160.obj (.text:bmi160_set_gyro_wakeup_trigger)
                  0000dd04    00000064     bmi160.obj (.text:bmi160_set_if_mode)
                  0000dd68    00000064     bmi160.obj (.text:bmi160_set_mag_output_data_rate)
                  0000ddcc    00000064     bmi160.obj (.text:bmi160_set_paging_enable)
                  0000de30    00000064     bmi160.obj (.text:bmi160_set_pullup_configuration)
                  0000de94    00000064     bmi160.obj (.text:bmi160_set_target_page)
                  0000def8    00000064     rtsv7M4_T_le_v4SPD16_eabi.lib : s_frexp.obj (.text)
                  0000df5c    00000064     main_pem4f.oem4f (.text:ti_sysbios_knl_Mailbox_create)
                  0000dfc0    00000062     tirtosport.aem4f : HwiP_tirtos.oem4f (.text:HwiP_create)
                  0000e022    00000002     --HOLE-- [fill = 0]
                  0000e024    00000060     bmi160.obj (.text:bmi160_get_gyro_offset_compensation_yaxis)
                  0000e084    00000060     bmi160.obj (.text:bmi160_get_gyro_offset_compensation_zaxis)
                  0000e0e4    00000060     bmi160.obj (.text:bmi160_set_mag_manual_enable)
                  0000e144    00000004     ti.targets.arm.rtsarm.aem4f : System.oem4f (.text:xdc_runtime_System_aprintf_va__F)
                  0000e148    00000060     sysbios.aem4f : BIOS.obj (.text:ti_sysbios_family_arm_m3_TimestampProvider_get32__E)
                  0000e1a8    00000060                   : BIOS.obj (.text:ti_sysbios_knl_Clock_logTick__E)
                  0000e208    00000060                   : BIOS.obj (.text:ti_sysbios_utils_Load_logCPULoad__I)
                  0000e268    00000060                   : BIOS.obj (.text:ti_sysbios_utils_Load_updateCurrentThreadTime__E)
                  0000e2c8    0000005c     drivers_MSP432P401R.aem4f : GPIOMSP432.oem4f (.text:GPIO_init)
                  0000e324    0000005c     bmi160.obj (.text:bmi160_bmm150_mag_compensate_Z)
                  0000e380    0000005c     bmi160.obj (.text:bmi160_set_accel_offset_enable)
                  0000e3dc    0000005c     bmi160.obj (.text:bmi160_set_gyro_offset_enable)
                  0000e438    0000005c     bmi160.obj (.text:bmi160_set_i2c_device_addr)
                  0000e494    00000004     ti.targets.arm.rtsarm.aem4f : System.oem4f (.text:xdc_runtime_System_printf_va__F)
                  0000e498    0000005c     sysbios.aem4f : BIOS.obj (.text:ti_sysbios_knl_Swi_schedule__I)
                  0000e4f4    0000005c     main_pem4f.oem4f (.text:ti_sysbios_knl_Task_create)
                  0000e550    0000005b     ti.targets.arm.rtsarm.aem4f : Text.oem4f (.text:xdc_runtime_Text_putLab__E)
                  0000e5ab    00000001     --HOLE-- [fill = 0]
                  0000e5ac    0000005a     tirtosport.aem4f : ClockP_tirtos.oem4f (.text:ClockP_create)
                  0000e606    00000058                      : SemaphoreP_tirtos.oem4f (.text:SemaphoreP_create)
                  0000e65e    00000002     --HOLE-- [fill = 0]
                  0000e660    00000058     bmi160.obj (.text:bmi160_read_accel_xyz)
                  0000e6b8    00000058     bmi160.obj (.text:bmi160_read_gyro_xyz)
                  0000e710    00000058     boot.aem4f : boot.oem4f (.text)
                  0000e768    00000058     main_pem4f.oem4f (.text:ti_sysbios_family_arm_m3_Hwi_construct)
                  0000e7c0    00000058     sysbios.aem4f : m3_Hwi_asm_switch.obj (.text:ti_sysbios_family_arm_m3_Hwi_initStacks__E)
                  0000e818    00000058                   : BIOS.obj (.text:ti_sysbios_family_arm_m3_Timer_setPeriod__E)
                  0000e870    00000054     drivers_MSP432P401R.aem4f : GPIOMSP432.oem4f (.text:GPIO_hwiIntFxn)
                  0000e8c4    00000054                               : GPIOMSP432.oem4f (.text:GPIO_setCallback)
                  0000e918    00000054                               : I2CMSP432.oem4f (.text:initHw)
                  0000e96c    00000054     rtsv7M4_T_le_v4SPD16_eabi.lib : exit.obj (.text)
                  0000e9c0    00000054                                   : ltoa.obj (.text)
                  0000ea14    00000004     --HOLE-- [fill = 0]
                  0000ea18    00000054     sysbios.aem4f : BIOS.obj (.text:ti_sysbios_family_arm_m3_Timer_start__E)
                  0000ea6c    00000004     --HOLE-- [fill = 0]
                  0000ea70    00000054                   : BIOS.obj (.text:ti_sysbios_family_arm_msp432_Timer_initDevice__I)
                  0000eac4    00000004     --HOLE-- [fill = 0]
                  0000eac8    00000054                   : BIOS.obj (.text:ti_sysbios_family_arm_msp432_init_Boot_configureClocksHigh)
                  0000eb1c    00000004     --HOLE-- [fill = 0]
                  0000eb20    00000054                   : BIOS.obj (.text:ti_sysbios_utils_Load_taskSwitchHook__E)
                  0000eb74    00000054     ti.targets.arm.rtsarm.aem4f : Assert.oem4f (.text:xdc_runtime_Assert_raise__I)
                  0000ebc8    00000052     drivers_MSP432P401R.aem4f : UARTMSP432.oem4f (.text:UARTMSP432_writeCancel)
                  0000ec1a    00000002     --HOLE-- [fill = 0]
                  0000ec1c    00000050                               : GPIOMSP432.oem4f (.text:GPIO_write)
                  0000ec6c    00000050     msp432p4xx_driverlib.lib : pcm.o (.text:PCM_shutdownDevice)
                  0000ecbc    00000050     bmi160_support.obj (.text:bmi160_i2c_bus_write)
                  0000ed0c    00000004     --HOLE-- [fill = 0]
                  0000ed10    00000050     sysbios.aem4f : BIOS.obj (.text:ti_sysbios_family_arm_m3_Hwi_Module_startup__E)
                  0000ed60    00000050     ti.targets.arm.rtsarm.aem4f : Startup.oem4f (.text:xdc_runtime_Startup_exec__E)
                  0000edb0    00000050                                 : Text.oem4f (.text:xdc_runtime_Text_visitRope2__I)
                  0000ee00    0000004c     rtsv7M4_T_le_v4SPD16_eabi.lib : atoi.obj (.text)
                  0000ee4c    0000004c                                   : cpy_tbl.obj (.text)
                  0000ee98    0000004c     sysbios.aem4f : BIOS.obj (.text:ti_sysbios_heaps_HeapMem_getStats__E)
                  0000eee4    00000004     --HOLE-- [fill = 0]
                  0000eee8    0000004c                   : BIOS.obj (.text:ti_sysbios_knl_Swi_runLoop__I)
                  0000ef34    00000004     --HOLE-- [fill = 0]
                  0000ef38    0000004c                   : BIOS.obj (.text:ti_sysbios_knl_Task_allBlockedFunction__I)
                  0000ef84    0000004c     ti.uia.loggers.aem4f : LoggerStopMode.oem4f (.text:ti_uia_loggers_LoggerStopMode_Module_startup__E)
                  0000efd0    00000048     MAES_lib.lib : User_Cond.obj (.text)
                  0000f018    00000048     rtsv7M4_T_le_v4SPD16_eabi.lib : fd_toi_t2.obj (.text)
                  0000f060    00000048     sysbios.aem4f : BIOS.obj (.text:ti_sysbios_family_arm_m3_Hwi_disableInterrupt__E)
                  0000f0a8    00000048                   : BIOS.obj (.text:ti_sysbios_family_arm_m3_Hwi_enableInterrupt__E)
                  0000f0f0    00000048                   : BIOS.obj (.text:ti_sysbios_family_arm_m3_Hwi_excReserved__I)
                  0000f138    00000048                   : BIOS.obj (.text:ti_sysbios_family_arm_m3_Timer_initDevice__I)
                  0000f180    00000048                   : BIOS.obj (.text:ti_sysbios_utils_Load_taskDeleteHook__E)
                  0000f1c8    00000046     drivers_MSP432P401R.aem4f : RingBuf.oem4f (.text:RingBuf_put)
                  0000f20e    00000046                               : UARTMSP432.oem4f (.text:readIsrBinaryBlocking)
                  0000f254    00000046     ti.targets.arm.rtsarm.aem4f : Core-params.oem4f (.text:xdc_runtime_Core_assignParams__I)
                  0000f29a    00000002     --HOLE-- [fill = 0]
                  0000f29c    00000044     drivers_MSP432P401R.aem4f : PowerMSP432.oem4f (.text:Power_init)
                  0000f2e0    00000044     sysbios.aem4f : BIOS.obj (.text:ti_sysbios_family_arm_m3_Hwi_getStackInfo__E)
                  0000f324    00000004     --HOLE-- [fill = 0]
                  0000f328    00000044                   : BIOS.obj (.text:ti_sysbios_knl_Mailbox_postInit__I)
                  0000f36c    00000004     --HOLE-- [fill = 0]
                  0000f370    00000044                   : BIOS.obj (.text:ti_sysbios_utils_Load_removeTask__E)
                  0000f3b4    00000044     ti.uia.loggers.aem4f : LoggerStopMode.oem4f (.text:ti_uia_loggers_LoggerStopMode_initBuffer__I)
                  0000f3f8    00000044     ti.targets.arm.rtsarm.aem4f : Error.oem4f (.text:xdc_runtime_Error_setX__E)
                  0000f43c    00000044                                 : SysMin.oem4f (.text:xdc_runtime_SysMin_flush__E)
                  0000f480    00000044                                 : Text.oem4f (.text:xdc_runtime_Text_xprintf__I)
                  0000f4c4    00000042     drivers_MSP432P401R.aem4f : UARTMSP432.oem4f (.text:UARTMSP432_hwiIntFxn)
                  0000f506    00000042                               : I2CMSP432.oem4f (.text:completeTransfer)
                  0000f548    00000040     msp432p4xx_driverlib.lib : flash.o (.text:FlashCtl_disableReadBuffering)
                  0000f588    00000040                              : i2c.o (.text:I2C_masterSendMultiByteFinish)
                  0000f5c8    00000040     drivers_MSP432P401R.aem4f : RingBuf.oem4f (.text:RingBuf_get)
                  0000f608    00000040                               : UARTMSP432.oem4f (.text:UARTMSP432_read)
                  0000f648    00000040     bmi160.obj (.text:bmi160_init)
                  0000f688    00000040     drivers_MSP432P401R.aem4f : PowerMSP432.oem4f (.text:notify)
                  0000f6c8    00000040     rtsv7M4_T_le_v4SPD16_eabi.lib : u_divt2.obj (.text)
                  0000f708    00000040     sysbios.aem4f : BIOS.obj (.text:ti_sysbios_family_arm_m3_Timer_Module_startup__E)
                  0000f748    0000003e     msp432p4xx_driverlib.lib : i2c.o (.text:I2C_initMaster)
                  0000f786    0000003e     bmi160.obj (.text:bmi160_bmm150_mag_compensate_xyz)
                  0000f7c4    0000003c     power_tirtos_MSP432P401R.aem4f : PowerMSP432_tirtos.oem4f (.text:PowerMSP432_sleepPolicy)
                  0000f800    0000003c     sysbios.aem4f : BIOS.obj (.text:ti_sysbios_family_arm_m3_Hwi_excSvCall__I)
                  0000f83c    00000004     --HOLE-- [fill = 0]
                  0000f840    0000003c                   : BIOS.obj (.text:ti_sysbios_heaps_HeapMem_init__I)
                  0000f87c    00000004     --HOLE-- [fill = 0]
                  0000f880    0000003c                   : BIOS.obj (.text:ti_sysbios_knl_Swi_restore__E)
                  0000f8bc    0000003a     drivers_MSP432P401R.aem4f : UARTMSP432.oem4f (.text:readIsrBinaryCallback)
                  0000f8f6    00000002     --HOLE-- [fill = 0]
                  0000f8f8    00000038                               : I2C.oem4f (.text:I2C_init)
                  0000f930    00000038                               : UART.oem4f (.text:UART_init)
                  0000f968    00000038                               : I2CMSP432.oem4f (.text:perfChangeNotifyFxn)
                  0000f9a0    00000038     rtsv7M4_T_le_v4SPD16_eabi.lib : fs_tod_t2.obj (.text)
                  0000f9d8    00000038     main_pem4f.oem4f (.text:ti_sysbios_BIOS_startFunc__I)
                  0000fa10    00000038     sysbios.aem4f : BIOS.obj (.text:ti_sysbios_family_arm_m3_Hwi_excNoIsr__I)
                  0000fa48    00000038                   : BIOS.obj (.text:ti_sysbios_knl_Task_processVitalTaskFlag__I)
                  0000fa80    00000038     ti.targets.arm.rtsarm.aem4f : SysMin.oem4f (.text:xdc_runtime_SysMin_putch__E)
                  0000fab8    00000038                                 : System.oem4f (.text:xdc_runtime_System_atexit__E)
                  0000faf0    00000036     drivers_MSP432P401R.aem4f : UARTMSP432.oem4f (.text:UARTMSP432_readCancel)
                  0000fb26    00000036                               : UARTMSP432.oem4f (.text:perfChangeNotifyFxn)
                  0000fb5c    00000034     msp432p4xx_driverlib.lib : flash.o (.text:FlashCtl_enableReadBuffering)
                  0000fb90    00000034     bmi160.obj (.text:bmi160_get_foc_rdy)
                  0000fbc4    00000034     bmi160.obj (.text:bmi160_get_if_mode)
                  0000fbf8    00000034     bmi160.obj (.text:bmi160_get_mag_manual_enable)
                  0000fc2c    00000034     bmi160.obj (.text:bmi160_get_mag_power_mode_stat)
                  0000fc60    00000034     bmi160.obj (.text:bmi160_get_paging_enable)
                  0000fc94    00000034     bmi160.obj (.text:bmi160_get_pullup_configuration)
                  0000fcc8    00000034     bmi160.obj (.text:bmi160_get_target_page)
                  0000fcfc    00000004     --HOLE-- [fill = 0]
                  0000fd00    00000034     sysbios.aem4f : BIOS.obj (.text:ti_sysbios_family_arm_m3_Hwi_Instance_finalize__E)
                  0000fd34    00000004     --HOLE-- [fill = 0]
                  0000fd38    00000034                   : BIOS.obj (.text:ti_sysbios_family_arm_m3_Hwi_excNmi__I)
                  0000fd6c    00000004     --HOLE-- [fill = 0]
                  0000fd70    00000034                   : BIOS.obj (.text:ti_sysbios_family_arm_m3_Timer_periodicStub__I)
                  0000fda4    00000004     --HOLE-- [fill = 0]
                  0000fda8    00000034                   : BIOS.obj (.text:ti_sysbios_hal_Hwi_checkStack)
                  0000fddc    00000034     main_pem4f.oem4f (.text:ti_sysbios_knl_Clock_construct)
                  0000fe10    00000034     ti.uia.loggers.aem4f : LoggerStopMode.oem4f (.text:ti_uia_loggers_LoggerStopMode_reset__E)
                  0000fe44    00000034     ti.targets.arm.rtsarm.aem4f : Core-label.oem4f (.text:xdc_runtime_Core_assignLabel__I)
                  0000fe78    00000033                                 : Text.oem4f (.text:xdc_runtime_Text_printVisFxn__I)
                  0000feab    00000005     --HOLE-- [fill = 0]
                  0000feb0    00000032     sysbios.aem4f : BIOS.obj (.text:ti_sysbios_hal_Hwi_initStack)
                  0000fee2    00000006     drivers_MSP432P401R.aem4f : I2CMSP432.oem4f (.text:I2CMSP432_control)
                  0000fee8    00000032     sysbios.aem4f : BIOS.obj (.text:ti_sysbios_knl_Semaphore_pendTimeout__I)
                  0000ff1a    00000002     --HOLE-- [fill = 0]
                  0000ff1c    00000030     msp432p4xx_driverlib.lib : gpio.o (.text:GPIO_getEnabledInterruptStatus)
                  0000ff4c    00000030                              : gpio.o (.text:GPIO_setAsInputPinWithPullDownResistor)
                  0000ff7c    00000030                              : gpio.o (.text:GPIO_setAsInputPinWithPullUpResistor)
                  0000ffac    00000030     drivers_MSP432P401R.aem4f : I2C.oem4f (.text:I2C_open)
                  0000ffdc    00000030                               : UART.oem4f (.text:UART_open)
                  0001000c    00000030     bmi160.obj (.text:bmi160_get_accel_offset_compensation_xaxis)
                  0001003c    00000030     bmi160.obj (.text:bmi160_get_accel_offset_compensation_yaxis)
                  0001006c    00000030     bmi160.obj (.text:bmi160_get_accel_offset_compensation_zaxis)
                  0001009c    00000030     bmi160_support.obj (.text:bmi160_i2c_burst_read)
                  000100cc    00000030     bmi160_support.obj (.text:bmi160_i2c_bus_read)
                  000100fc    00000030     bmi160_support.obj (.text:i2c_routine)
                  0001012c    00000030     main_pem4f.oem4f (.text:ti_sysbios_BIOS_atExitFunc__I)
                  0001015c    00000004     --HOLE-- [fill = 0]
                  00010160    00000030     sysbios.aem4f : BIOS.obj (.text:ti_sysbios_family_arm_m3_TaskSupport_start__E)
                  00010190    00000030     main_pem4f.oem4f (.text:ti_sysbios_gates_GateHwi_Object__create__S)
                  000101c0    00000030     main_pem4f.oem4f (.text:ti_sysbios_gates_GateMutexPri_Object__create__S)
                  000101f0    00000030     main_pem4f.oem4f (.text:ti_sysbios_gates_GateMutexPri_create)
                  00010220    00000030     main_pem4f.oem4f (.text:ti_sysbios_gates_GateMutex_Object__create__S)
                  00010250    00000030     main_pem4f.oem4f (.text:ti_sysbios_heaps_HeapMem_Object__create__S)
                  00010280    00000030     main_pem4f.oem4f (.text:ti_sysbios_knl_Semaphore_construct)
                  000102b0    00000030     main_pem4f.oem4f (.text:ti_uia_loggers_LoggerStopMode_Object__create__S)
                  000102e0    00000030     ti.targets.arm.rtsarm.aem4f : SysMin.oem4f (.text:xdc_runtime_SysMin_abort__E)
                  00010310    00000030                                 : System.oem4f (.text:xdc_runtime_System_processAtExit__E)
                  00010340    0000002e     rtsv7M4_T_le_v4SPD16_eabi.lib : i_tofd_t2.obj (.text)
                  0001036e    00000002     --HOLE-- [fill = 0]
                  00010370    0000002c     msp432p4xx_driverlib.lib : gpio.o (.text:GPIO_setAsInputPin)
                  0001039c    0000002c     MSP_EXP432P401R.obj (.text:MSP_EXP432P401R_initUART)
                  000103c8    0000002c     msp432p4xx_driverlib.lib : pcm.o (.text:PCM_getCoreVoltageLevel)
                  000103f4    0000002c     power_tirtos_MSP432P401R.aem4f : PowerMSP432_tirtos.oem4f (.text:PowerMSP432_updateFreqs)
                  00010420    0000002c     drivers_MSP432P401R.aem4f : PowerMSP432.oem4f (.text:Power_releaseConstraint)
                  0001044c    0000002c                               : PowerMSP432.oem4f (.text:Power_setConstraint)
                  00010478    0000002c     main_pem4f.oem4f (.text:ti_sysbios_knl_Clock_doTick__I)
                  000104a4    0000002c     main_pem4f.oem4f (.text:ti_sysbios_knl_Queue_construct)
                  000104d0    0000002c     sysbios.aem4f : BIOS.obj (.text:ti_sysbios_knl_Task_restore__E)
                  000104fc    0000002c     ti.targets.arm.rtsarm.aem4f : Text.oem4f (.text:xdc_runtime_Text_cordText__E)
                  00010528    0000002a     msp432p4xx_driverlib.lib : pcm.o (.text:PCM_getPowerMode)
                  00010552    0000002a     drivers_MSP432P401R.aem4f : UARTMSP432.oem4f (.text:findBaudDividerIndex)
                  0001057c    0000002a     ti.targets.arm.rtsarm.aem4f : System.oem4f (.text:xdc_runtime_System_putchar__I)
                  000105a6    00000002     --HOLE-- [fill = 0]
                  000105a8    00000028     msp432p4xx_driverlib.lib : flash.o (.text:FlashCtl_setWaitState)
                  000105d0    00000028                              : pcm.o (.text:PCM_gotoLPM0)
                  000105f8    00000028     bmi160.obj (.text:bmi160_read_reg)
                  00010620    00000028     bmi160.obj (.text:bmi160_set_command_register)
                  00010648    00000028     bmi160.obj (.text:bmi160_set_fifo_wm)
                  00010670    00000028     bmi160.obj (.text:bmi160_set_mag_read_addr)
                  00010698    00000028     bmi160.obj (.text:bmi160_set_mag_write_addr)
                  000106c0    00000028     bmi160.obj (.text:bmi160_set_mag_write_data)
                  000106e8    00000028     rtsv7M4_T_le_v4SPD16_eabi.lib : e_sqrtf.obj (.text)
                  00010710    00000028     sysbios.aem4f : BIOS.obj (.text:ti_sysbios_knl_Swi_Module_startup__E)
                  00010738    00000026     drivers_MSP432P401R.aem4f : List.oem4f (.text:List_put)
                  0001075e    00000026     sysbios.aem4f : m3_Hwi_asm.obj (.text:ti_sysbios_family_arm_m3_Hwi_pendSV__I)
                  00010784    00000026     ti.targets.arm.rtsarm.aem4f : System.oem4f (.text:xdc_runtime_System_avprintf__E)
                  000107aa    00000002     --HOLE-- [fill = 0]
                  000107ac    00000024     msp432p4xx_driverlib.lib : cs.o (.text:CS_setDCOCenteredFrequency)
                  000107d0    00000024                              : gpio.o (.text:GPIO_setAsOutputPin)
                  000107f4    00000024                              : i2c.o (.text:I2C_masterSendMultiByteNext)
                  00010818    00000024                              : rtc_c.o (.text:RTC_C_holdClock)
                  0001083c    00000024                              : rtc_c.o (.text:RTC_C_startClock)
                  00010860    00000024                              : uart.o (.text:UART_disableInterrupt)
                  00010884    00000024                              : uart.o (.text:UART_receiveData)
                  000108a8    00000024                              : uart.o (.text:UART_transmitData)
                  000108cc    00000024     kalman.obj (.text:_Z6kalmanjj)
                  000108f0    00000024     bmi160.obj (.text:bmi160_fifo_data)
                  00010914    00000024     bmi160_support.obj (.text:bmi160_initialize_sensor)
                  00010938    00000024     bmi160.obj (.text:bmi160_write_reg)
                  0001095c    00000024     main_pem4f.oem4f (.text:ti_sysbios_BIOS_errorRaiseHook__I)
                  00010980    00000024     main_pem4f.oem4f (.text:ti_sysbios_BIOS_registerRTSLock__I)
                  000109a4    00000024     main_pem4f.oem4f (.text:ti_sysbios_BIOS_removeRTSLock__I)
                  000109c8    00000024     sysbios.aem4f : BIOS.obj (.text:ti_sysbios_family_arm_m3_Hwi_doTaskRestore__I)
                  000109ec    00000004     --HOLE-- [fill = 0]
                  000109f0    00000024                   : BIOS.obj (.text:ti_sysbios_family_arm_m3_Timer_startup__E)
                  00010a14    00000004     --HOLE-- [fill = 0]
                  00010a18    00000024                   : BIOS.obj (.text:ti_sysbios_family_arm_msp432_ClockFreqs_setFrequency__E)
                  00010a3c    00000024     main_pem4f.oem4f (.text:ti_sysbios_gates_GateMutexPri_Object__delete__S)
                  00010a60    00000024     main_pem4f.oem4f (.text:ti_sysbios_gates_GateMutex_Object__delete__S)
                  00010a84    00000004     --HOLE-- [fill = 0]
                  00010a88    00000024     sysbios.aem4f : BIOS.obj (.text:ti_sysbios_knl_Clock_Module_startup__E)
                  00010aac    00000004     --HOLE-- [fill = 0]
                  00010ab0    00000024                   : BIOS.obj (.text:ti_sysbios_knl_Task_getMode__E)
                  00010ad4    00000024     ti.targets.arm.rtsarm.aem4f : System.oem4f (.text:xdc_runtime_System_vprintf__E)
                  00010af8    00000022     main_pem4f.oem4f (.text:xdc_runtime_SysMin_output__I)
                  00010b1a    00000002     --HOLE-- [fill = 0]
                  00010b1c    00000020     msp432p4xx_driverlib.lib : gpio.o (.text:GPIO_interruptEdgeSelect)
                  00010b3c    00000020     drivers_MSP432P401R.aem4f : PowerMSP432.oem4f (.text:PowerMSP432_getFreqs)
                  00010b5c    00000020                               : PowerMSP432.oem4f (.text:Power_unregisterNotify)
                  00010b7c    00000020                               : RingBuf.oem4f (.text:RingBuf_peek)
                  00010b9c    00000020     main_pem4f.oem4f (.text:ti_sysbios_BIOS_rtsLock__I)
                  00010bbc    00000020     sysbios.aem4f : m3_Hwi_asm.obj (.text:ti_sysbios_family_arm_m3_Hwi_excHandlerAsm__I)
                  00010bdc    00000004     --HOLE-- [fill = 0]
                  00010be0    00000020                   : BIOS.obj (.text:ti_sysbios_family_arm_m3_Hwi_excHandler__I)
                  00010c00    00000020                   : BIOS.obj (.text:ti_sysbios_family_arm_m3_TimestampProvider_Module_startup__E)
                  00010c20    00000020     main_pem4f.oem4f (.text:ti_sysbios_gates_GateHwi_Object__delete__S)
                  00010c40    00000020     main_pem4f.oem4f (.text:ti_sysbios_heaps_HeapMem_Object__delete__S)
                  00010c60    00000020     main_pem4f.oem4f (.text:ti_sysbios_knl_Clock_Object__destruct__S)
                  00010c80    00000020     sysbios.aem4f : BIOS.obj (.text:ti_sysbios_knl_Idle_run__E)
                  00010ca0    00000020     main_pem4f.oem4f (.text:ti_sysbios_knl_Mailbox_Object__delete__S)
                  00010cc0    00000020     main_pem4f.oem4f (.text:ti_sysbios_knl_Semaphore_Object__destruct__S)
                  00010ce0    00000020     main_pem4f.oem4f (.text:ti_sysbios_knl_Task_Object__delete__S)
                  00010d00    00000020     main_pem4f.oem4f (.text:ti_uia_loggers_LoggerStopMode_Object__delete__S)
                  00010d20    00000020     ti.targets.arm.rtsarm.aem4f : Registry.oem4f (.text:xdc_runtime_Registry_findById__E)
                  00010d40    00000020                                 : SysMin.oem4f (.text:xdc_runtime_SysMin_Module_startup__E)
                  00010d60    0000001e     sysbios.aem4f : m3_Hwi_asm_switch.obj (.text:ti_sysbios_family_xxx_Hwi_switchAndRunFunc)
                  00010d7e    00000002     --HOLE-- [fill = 0]
                  00010d80    0000001c     MSP_EXP432P401R.obj (.text:MSP_EXP432P401R_initI2C)
                  00010d9c    0000001c     msp432p4xx_driverlib.lib : pcm.o (.text:PCM_enableRudeMode)
                  00010db8    0000001c     drivers_MSP432P401R.aem4f : PowerMSP432.oem4f (.text:Power_registerNotify)
                  00010dd4    0000001c     sensors.obj (.text:_Z6sensorjj)
                  00010df0    0000001c     rtsv7M4_T_le_v4SPD16_eabi.lib : memccpy.obj (.text)
                  00010e0c    0000001c     main_pem4f.oem4f (.text:ti_sysbios_family_arm_m3_Hwi_Object__destruct__S)
                  00010e28    0000001c     sysbios.aem4f : BIOS.obj (.text:ti_sysbios_gates_GateMutexPri_Instance_init__E)
                  00010e44    00000004     --HOLE-- [fill = 0]
                  00010e48    0000001c                   : BIOS.obj (.text:ti_sysbios_gates_GateMutex_Instance_init__E)
                  00010e64    0000001c     main_pem4f.oem4f (.text:ti_sysbios_knl_Queue_Object__destruct__S)
                  00010e80    0000001c     sysbios.aem4f : BIOS.obj (.text:ti_sysbios_knl_Task_enter__I)
                  00010e9c    0000001c     ti.uia.loggers.aem4f : LoggerStopMode.oem4f (.text:ti_uia_loggers_LoggerStopMode_Instance_init__E)
                  00010eb8    0000001c     ti.targets.arm.rtsarm.aem4f : Error.oem4f (.text:xdc_runtime_Error_raiseX__E)
                  00010ed4    0000001c                                 : Memory.oem4f (.text:xdc_runtime_Memory_valloc__E)
                  00010ef0    0000001c                                 : SysMin.oem4f (.text:xdc_runtime_SysMin_exit__E)
                  00010f0c    0000001c                                 : System.oem4f (.text:xdc_runtime_System_abort__E)
                  00010f28    0000001a     drivers_MSP432P401R.aem4f : List.oem4f (.text:List_remove)
                  00010f42    00000006     msp432p4xx_driverlib.lib : i2c.o (.text:I2C_getEnabledInterruptStatus)
                  00010f48    0000001a     sysbios.aem4f : BIOS.obj (.text:ti_sysbios_knl_Task_sleepTimeout__I)
                  00010f62    0000001a     main_pem4f.oem4f (.text:xdc_runtime_System_aprintf__E)
                  00010f7c    0000001a     main_pem4f.oem4f (.text:xdc_runtime_System_printf__E)
                  00010f96    00000002     --HOLE-- [fill = 0]
                  00010f98    00000018     msp432p4xx_driverlib.lib : gpio.o (.text:GPIO_clearInterruptFlag)
                  00010fb0    00000018                              : gpio.o (.text:GPIO_setDriveStrengthLow)
                  00010fc8    00000018                              : gpio.o (.text:GPIO_setOutputLowOnPin)
                  00010fe0    00000018                              : i2c.o (.text:I2C_masterIsStartSent)
                  00010ff8    00000018     drivers_MSP432P401R.aem4f : UART.oem4f (.text:UART_Params_init)
                  00011010    00000018     msp432p4xx_driverlib.lib : wdt_a.o (.text:WDT_A_holdTimer)
                  00011028    00000018     MAES_lib.lib : Agent_Platform.obj (.text:_ZN4MAES13USER_DEF_CONDC1Ev)
                  00011040    00000018     main_pem4f.oem4f (.text:free)
                  00011058    00000018     rtsv7M4_T_le_v4SPD16_eabi.lib : args_main.obj (.text)
                  00011070    00000018                                   : strcmp.obj (.text)
                  00011088    00000018     main_pem4f.oem4f (.text:ti_sysbios_BIOS_rtsUnlock__I)
                  000110a0    00000018     main_pem4f.oem4f (.text:ti_sysbios_family_arm_m3_Hwi_Handle__label__S)
                  000110b8    00000018     main_pem4f.oem4f (.text:ti_sysbios_family_arm_m3_Hwi_Module__startupDone__F)
                  000110d0    00000018     sysbios.aem4f : m3_TaskSupport_asm.obj (.text:ti_sysbios_family_arm_m3_TaskSupport_swap__E)
                  000110e8    00000018     main_pem4f.oem4f (.text:ti_sysbios_family_arm_msp432_Timer_Module__startupDone__F)
                  00011100    00000018     main_pem4f.oem4f (.text:ti_sysbios_gates_GateHwi_Handle__label__S)
                  00011118    00000018     main_pem4f.oem4f (.text:ti_sysbios_gates_GateMutexPri_Handle__label__S)
                  00011130    00000018     main_pem4f.oem4f (.text:ti_sysbios_gates_GateMutex_Handle__label__S)
                  00011148    00000018     sysbios.aem4f : BIOS.obj (.text:ti_sysbios_gates_GateMutex_leave__E)
                  00011160    00000018     main_pem4f.oem4f (.text:ti_sysbios_heaps_HeapMem_Handle__label__S)
                  00011178    00000018     main_pem4f.oem4f (.text:ti_sysbios_knl_Swi_Handle__label__S)
                  00011190    00000018     main_pem4f.oem4f (.text:ti_sysbios_knl_Task_Handle__label__S)
                  000111a8    00000018     main_pem4f.oem4f (.text:ti_uia_loggers_LoggerStopMode_Handle__label__S)
                  000111c0    00000018     ti.targets.arm.rtsarm.aem4f : Error.oem4f (.text:xdc_runtime_Error_check__E)
                  000111d8    00000018                                 : System.oem4f (.text:xdc_runtime_System_exit__E)
                  000111f0    00000018                                 : Text.oem4f (.text:xdc_runtime_Text_ropeText__E)
                  00011208    00000016     tirtosport.aem4f : ClockP_tirtos.oem4f (.text:ClockP_delete)
                  0001121e    00000016                      : HwiP_tirtos.oem4f (.text:HwiP_delete)
                  00011234    00000016                      : SemaphoreP_tirtos.oem4f (.text:SemaphoreP_delete)
                  0001124a    00000016     msp432p4xx_driverlib.lib : uart.o (.text:UART_enableInterrupt)
                  00011260    00000016     rtsv7M4_T_le_v4SPD16_eabi.lib : strchr.obj (.text)
                  00011276    00000016     main_pem4f.oem4f (.text:ti_sysbios_BIOS_exitFunc__I)
                  0001128c    00000004     --HOLE-- [fill = 0]
                  00011290    00000016     sysbios.aem4f : BIOS.obj (.text:ti_sysbios_knl_Task_getFunc__E)
                  000112a6    00000016     ti.uia.loggers.aem4f : LoggerStopMode.oem4f (.text:ti_uia_loggers_LoggerStopMode_disable__E)
                  000112bc    00000016                          : LoggerStopMode.oem4f (.text:ti_uia_loggers_LoggerStopMode_enable__E)
                  000112d2    00000002     --HOLE-- [fill = 0]
                  000112d4    00000014     msp432p4xx_driverlib.lib : gpio.o (.text:GPIO_setDriveStrengthHigh)
                  000112e8    00000014                              : gpio.o (.text:GPIO_setOutputHighOnPin)
                  000112fc    00000014     drivers_MSP432P401R.aem4f : PowerMSP432.oem4f (.text:Power_idleFunc)
                  00011310    00000014     msp432p4xx_driverlib.lib : wdt_a.o (.text:WDT_A_startTimer)
                  00011324    00000014     bmi160_support.obj (.text:bmi160_delay_ms)
                  00011338    00000014     rtsv7M4_T_le_v4SPD16_eabi.lib : _lock.obj (.text)
                  0001134c    00000014                                   : s_copysign.obj (.text)
                  00011360    00000014                                   : strcpy.obj (.text)
                  00011374    00000014                                   : strlen.obj (.text)
                  00011388    00000014     main_pem4f.oem4f (.text:ti_sysbios_family_arm_m3_Hwi_Object__get__S)
                  0001139c    00000004     --HOLE-- [fill = 0]
                  000113a0    00000014     sysbios.aem4f : BIOS.obj (.text:ti_sysbios_family_arm_m3_Hwi_switchFromBootStack__E)
                  000113b4    00000014     main_pem4f.oem4f (.text:ti_sysbios_heaps_HeapMem_Object__get__S)
                  000113c8    00000014     main_pem4f.oem4f (.text:ti_sysbios_knl_Swi_Object__get__S)
                  000113dc    00000014     main_pem4f.oem4f (.text:ti_sysbios_knl_Task_Object__first__S)
                  000113f0    00000014     main_pem4f.oem4f (.text:ti_sysbios_knl_Task_Object__get__S)
                  00011404    00000014     main_pem4f.oem4f (.text:ti_sysbios_knl_Task_Object__next__S)
                  00011418    00000012     tirtosport.aem4f : ClockP_tirtos.oem4f (.text:ClockP_start)
                  0001142a    00000012     drivers_MSP432P401R.aem4f : RingBuf.oem4f (.text:RingBuf_construct)
                  0001143c    00000012     tirtosport.aem4f : SemaphoreP_tirtos.oem4f (.text:SemaphoreP_pend)
                  0001144e    00000012     rtsv7M4_T_le_v4SPD16_eabi.lib : s_copysignf.obj (.text)
                  00011460    00000012     sysbios.aem4f : BIOS.obj (.text:ti_sysbios_hal_Hwi_Module_startup__E)
                  00011472    00000012     main_pem4f.oem4f (.text:xdc_runtime_Startup_exec__I)
                  00011484    00000010     msp432p4xx_driverlib.lib : gpio.o (.text:GPIO_getInterruptStatus)
                  00011494    00000010     drivers_MSP432P401R.aem4f : I2C.oem4f (.text:I2C_Params_init)
                  000114a4    00000010     msp432p4xx_driverlib.lib : i2c.o (.text:I2C_masterReceiveMultiByteStop)
                  000114b4    00000010                              : i2c.o (.text:I2C_masterReceiveStart)
                  000114c4    00000010                              : i2c.o (.text:I2C_masterSendStart)
                  000114d4    00000010                              : pcm.o (.text:PCM_gotoLPM4)
                  000114e4    00000010     drivers_MSP432P401R.aem4f : UARTMSP432.oem4f (.text:readBlockingTimeout)
                  000114f4    00000004     --HOLE-- [fill = 0]
                  000114f8    00000010     sysbios.aem4f : BIOS.obj (.text:ti_sysbios_BIOS_getCpuFreq__E)
                  00011508    00000010                   : BIOS.obj (.text:ti_sysbios_BIOS_setCpuFreq__E)
                  00011518    00000010                   : BIOS.obj (.text:ti_sysbios_BIOS_setThreadType__E)
                  00011528    00000010                   : BIOS.obj (.text:ti_sysbios_BIOS_start__E)
                  00011538    00000010                   : m3_TaskSupport_asm.obj (.text:ti_sysbios_family_arm_m3_TaskSupport_glue)
                  00011548    00000010                   : BIOS.obj (.text:ti_sysbios_family_arm_msp432_init_Boot_disableWatchdog)
                  00011558    00000010                   : BIOS.obj (.text:ti_sysbios_gates_GateMutexPri_Instance_finalize__E)
                  00011568    00000010                   : BIOS.obj (.text:ti_sysbios_gates_GateMutex_Instance_finalize__E)
                  00011578    00000010     main_pem4f.oem4f (.text:ti_sysbios_knl_Mailbox_Object__get__S)
                  00011588    00000010     sysbios.aem4f : BIOS.obj (.text:ti_sysbios_knl_Semaphore_Instance_finalize__E)
                  00011598    00000010                   : BIOS.obj (.text:ti_sysbios_knl_Swi_disable__E)
                  000115a8    00000010                   : BIOS.obj (.text:ti_sysbios_knl_Task_disable__E)
                  000115b8    00000010     main_pem4f.oem4f (.text:ti_uia_loggers_LoggerStopMode_Object__get__S)
                  000115c8    00000010     ti.uia.loggers.aem4f : LoggerStopMode.oem4f (.text:ti_uia_loggers_LoggerStopMode_isEmpty__E)
                  000115d8    00000010     ti.targets.arm.rtsarm.aem4f : Gate.oem4f (.text:xdc_runtime_Gate_leaveSystem__E)
                  000115e8    00000010                                 : Memory.oem4f (.text:xdc_runtime_Memory_free__E)
                  000115f8    00000010                                 : SysMin.oem4f (.text:xdc_runtime_SysMin_ready__E)
                  00011608    00000010                                 : System.oem4f (.text:xdc_runtime_System_vsnprintf__E)
                  00011618    0000000e     tirtosport.aem4f : HwiP_tirtos.oem4f (.text:HwiP_Params_init)
                  00011626    0000000e     msp432p4xx_driverlib.lib : i2c.o (.text:I2C_clearInterruptFlag)
                  00011634    0000000e                              : i2c.o (.text:I2C_disableInterrupt)
                  00011642    0000000e                              : i2c.o (.text:I2C_setMode)
                  00011650    0000000e                              : uart.o (.text:UART_clearInterruptFlag)
                  0001165e    0000000e     rtsv7M4_T_le_v4SPD16_eabi.lib : copy_decompress_none.obj (.text:decompress:none)
                  0001166c    00000004     --HOLE-- [fill = 0]
                  00011670    0000000e     sysbios.aem4f : BIOS.obj (.text:ti_sysbios_knl_Idle_loop__E)
                  0001167e    00000002     --HOLE-- [fill = 0]
                  00011680    0000000e                   : BIOS.obj (.text:ti_sysbios_knl_Queue_empty__E)
                  0001168e    0000000c     main_pem4f.oem4f (.text:.bootCodeSection:ti_sysbios_family_arm_msp432_init_Boot_init__I)
                  0001169a    0000000c     msp432p4xx_driverlib.lib : cpu.o (.text:CPU_cpsid)
                  000116a6    0000000c                              : cpu.o (.text:CPU_cpsie)
                  000116b2    0000000c                              : i2c.o (.text:I2C_disableModule)
                  000116be    0000000c                              : i2c.o (.text:I2C_enableModule)
                  000116ca    00000002     --HOLE-- [fill = 0]
                  000116cc    0000000c                              : pcm.o (.text:PCM_getPowerState)
                  000116d8    0000000c     drivers_MSP432P401R.aem4f : PowerMSP432.oem4f (.text:Power_getConstraintMask)
                  000116e4    0000000c                               : PowerMSP432.oem4f (.text:Power_getPerformanceLevel)
                  000116f0    0000000c                               : UARTMSP432.oem4f (.text:UARTMSP432_init)
                  000116fc    0000000c     msp432p4xx_driverlib.lib : uart.o (.text:UART_disableModule)
                  00011708    0000000c                              : uart.o (.text:UART_enableModule)
                  00011714    0000000c     rtsv7M4_T_le_v4SPD16_eabi.lib : copy_zero_init.obj (.text:decompress:ZI)
                  00011720    0000000c     main_pem4f.oem4f (.text:ti_sysbios_family_arm_m3_Hwi_Params__init__S)
                  0001172c    00000004     --HOLE-- [fill = 0]
                  00011730    0000000c     sysbios.aem4f : BIOS.obj (.text:ti_sysbios_family_arm_m3_Hwi_disableFxn__E)
                  0001173c    00000004     --HOLE-- [fill = 0]
                  00011740    0000000c                   : BIOS.obj (.text:ti_sysbios_family_arm_m3_TaskSupport_checkStack__E)
                  0001174c    00000004     --HOLE-- [fill = 0]
                  00011750    0000000c                   : BIOS.obj (.text:ti_sysbios_family_arm_m3_TaskSupport_getStackAlignment__E)
                  0001175c    00000004     --HOLE-- [fill = 0]
                  00011760    0000000c                   : BIOS.obj (.text:ti_sysbios_family_arm_m3_TimestampProvider_startTimer__E)
                  0001176c    00000004     --HOLE-- [fill = 0]
                  00011770    0000000c                   : BIOS.obj (.text:ti_sysbios_family_arm_msp432_Timer_getMaxTicks__E)
                  0001177c    00000004     --HOLE-- [fill = 0]
                  00011780    0000000c                   : BIOS.obj (.text:ti_sysbios_gates_GateHwi_enter__E)
                  0001178c    0000000c     main_pem4f.oem4f (.text:ti_sysbios_gates_GateMutexPri_Params__init__S)
                  00011798    0000000c     main_pem4f.oem4f (.text:ti_sysbios_knl_Clock_Params__init__S)
                  000117a4    00000004     --HOLE-- [fill = 0]
                  000117a8    0000000c     sysbios.aem4f : BIOS.obj (.text:ti_sysbios_knl_Clock_getTicks__E)
                  000117b4    0000000c     main_pem4f.oem4f (.text:ti_sysbios_knl_Mailbox_Params__init__S)
                  000117c0    0000000c     main_pem4f.oem4f (.text:ti_sysbios_knl_Queue_Object__get__S)
                  000117cc    0000000c     main_pem4f.oem4f (.text:ti_sysbios_knl_Semaphore_Params__init__S)
                  000117d8    0000000c     main_pem4f.oem4f (.text:ti_sysbios_knl_Task_Params__init__S)
                  000117e4    00000004     --HOLE-- [fill = 0]
                  000117e8    0000000c     sysbios.aem4f : BIOS.obj (.text:ti_sysbios_knl_Task_self__E)
                  000117f4    00000004     --HOLE-- [fill = 0]
                  000117f8    0000000c                   : BIOS.obj (.text:ti_sysbios_utils_Load_taskRegHook__E)
                  00011804    0000000c     ti.targets.arm.rtsarm.aem4f : Error.oem4f (.text:xdc_runtime_Error_init__E)
                  00011810    0000000c                                 : Gate.oem4f (.text:xdc_runtime_Gate_enterSystem__E)
                  0001181c    0000000c                                 : Memory.oem4f (.text:xdc_runtime_Memory_calloc__E)
                  00011828    0000000c                                 : Memory.oem4f (.text:xdc_runtime_Memory_getMaxDefaultTypeAlign__E)
                  00011834    0000000c                                 : Startup.oem4f (.text:xdc_runtime_Startup_rtsDone__E)
                  00011840    0000000a     tirtosport.aem4f : ClockP_tirtos.oem4f (.text:ClockP_stop)
                  0001184a    0000000a     drivers_MSP432P401R.aem4f : I2CMSP432.oem4f (.text:I2CMSP432_init)
                  00011854    0000000a                               : I2C.oem4f (.text:I2C_transfer)
                  0001185e    0000000a     tirtosport.aem4f : SemaphoreP_tirtos.oem4f (.text:SemaphoreP_post)
                  00011868    0000000a     drivers_MSP432P401R.aem4f : UART.oem4f (.text:UART_write)
                  00011872    0000000a     main_pem4f.oem4f (.text:xdc_runtime_IHeap_alloc)
                  0001187c    0000000a     main_pem4f.oem4f (.text:xdc_runtime_IHeap_free)
                  00011886    0000000a     main_pem4f.oem4f (.text:xdc_runtime_Text_visitRope__I)
                  00011890    00000008     tirtosport.aem4f : ClockP_tirtos.oem4f (.text:ClockP_Params_init)
                  00011898    00000008     msp432p4xx_driverlib.lib : i2c.o (.text:I2C_enableInterrupt)
                  000118a0    00000008                              : pcm.o (.text:PCM_setPowerMode)
                  000118a8    00000008                              : pcm.o (.text:PCM_setPowerState)
                  000118b0    00000008     tirtosport.aem4f : SemaphoreP_tirtos.oem4f (.text:SemaphoreP_Params_init)
                  000118b8    00000008     dsplib-msp432.lib : arm_mat_init_f32.obj (.text:arm_mat_init_f32)
                  000118c0    00000008     drivers_MSP432P401R.aem4f : I2CMSP432.oem4f (.text:blockingTransferCallback)
                  000118c8    00000008                               : UARTMSP432.oem4f (.text:readSemCallback)
                  000118d0    00000008     rtsv7M4_T_le_v4SPD16_eabi.lib : delete.obj (.text)
                  000118d8    00000008     sysbios.aem4f : BIOS.obj (.text:ti_sysbios_family_arm_m3_Hwi_doSwiRestore__I)
                  000118e0    00000008                   : BIOS.obj (.text:ti_sysbios_family_arm_m3_Hwi_startup__E)
                  000118e8    00000008     drivers_MSP432P401R.aem4f : UARTMSP432.oem4f (.text:writeSemCallback)
                  000118f0    00000006     msp432p4xx_driverlib.lib : i2c.o (.text:I2C_getInterruptStatus)
                  000118f6    00000006                              : i2c.o (.text:I2C_masterReceiveMultiByteNext)
                  000118fc    00000006                              : uart.o (.text:UART_getInterruptStatus)
                  00011902    00000006                              : uart.o (.text:UART_queryStatusFlags)
                  00011908    00000006     rtsv7M4_T_le_v4SPD16_eabi.lib : pure_virt.obj (.text)
                  0001190e    00000002     --HOLE-- [fill = 0]
                  00011910    00000006     sysbios.aem4f : BIOS.obj (.text:ti_sysbios_family_arm_m3_Hwi_restoreFxn__E)
                  00011916    00000002     --HOLE-- [fill = 0]
                  00011918    00000006                   : BIOS.obj (.text:ti_sysbios_gates_GateHwi_leave__E)
                  0001191e    00000002     --HOLE-- [fill = 0]
                  00011920    00000006                   : BIOS.obj (.text:ti_sysbios_heaps_HeapMem_isBlocking__E)
                  00011926    00000002     --HOLE-- [fill = 0]
                  00011928    00000006                   : BIOS.obj (.text:ti_sysbios_knl_Clock_stop__E)
                  0001192e    00000002     --HOLE-- [fill = 0]
                  00011930    00000006                   : BIOS.obj (.text:ti_sysbios_knl_Queue_Instance_init__E)
                  00011936    00000002     --HOLE-- [fill = 0]
                  00011938    00000006                   : BIOS.obj (.text:ti_sysbios_knl_Swi_startup__E)
                  0001193e    00000006     ti.targets.arm.rtsarm.aem4f : System.oem4f (.text:xdc_runtime_System_Module_startup__E)
                  00011944    00000004     --HOLE-- [fill = 0]
                  00011948    00000004     sysbios.aem4f : BIOS.obj (.text:ti_sysbios_gates_GateHwi_query__E)
                  0001194c    00000004     --HOLE-- [fill = 0]
                  00011950    00000004                   : BIOS.obj (.text:ti_sysbios_gates_GateMutexPri_query__E)
                  00011954    00000004     --HOLE-- [fill = 0]
                  00011958    00000004                   : BIOS.obj (.text:ti_sysbios_gates_GateMutex_query__E)
                  0001195c    00000004     --HOLE-- [fill = 0]
                  00011960    00000004                   : BIOS.obj (.text:ti_sysbios_knl_Clock_setTimeout__E)
                  00011964    00000004     --HOLE-- [fill = 0]
                  00011968    00000004                   : BIOS.obj (.text:ti_sysbios_knl_Task_getEnv__E)
                  0001196c    00000004     --HOLE-- [fill = 0]
                  00011970    00000004                   : BIOS.obj (.text:ti_sysbios_knl_Task_getPri__E)
                  00011974    00000004     --HOLE-- [fill = 0]
                  00011978    00000004                   : BIOS.obj (.text:ti_sysbios_knl_Task_setEnv__E)
                  0001197c    00000004     --HOLE-- [fill = 0]
                  00011980    00000004                   : BIOS.obj (.text:ti_sysbios_knl_Task_startup__E)
                  00011984    00000004     --HOLE-- [fill = 0]
                  00011988    00000002                   : BIOS.obj (.text:ti_sysbios_BIOS_linkedWithIncorrectBootLibrary__E)
                  0001198a    00000006     --HOLE-- [fill = 0]
                  00011990    00000002                   : BIOS.obj (.text:ti_sysbios_family_arm_m3_TimestampProvider_rolloverFunc__E)
                  00011992    00000006     --HOLE-- [fill = 0]
                  00011998    00000002                   : BIOS.obj (.text:ti_sysbios_gates_GateHwi_Instance_init__E)

.const     0    0001199c    000027dc     
                  0001199c    00001960     main_pem4f.oem4f (.const:xdc_runtime_Text_charTab__A)
                  000132fc    00000101     rtsv7M4_T_le_v4SPD16_eabi.lib : ctype.obj (.const:.string:_ctypes_)
                  000133fd    00000002                                   : typeinfo_.obj (.const:.typeinfo:_ZTSe)
                  000133ff    00000001     main_pem4f.oem4f (.const:xdc_runtime_Error_policy__C)
                  00013400    00000070     MSP_EXP432P401R.obj (.const:uartMSP432Baudrates)
                  00013470    00000060     main_pem4f.oem4f (.const:ti_uia_loggers_LoggerStopMode_Module__FXNS__C)
                  000134d0    00000048     main_pem4f.oem4f (.const:.string)
                  00013518    00000048     MSP_EXP432P401R.obj (.const:uartMSP432HWAttrs)
                  00013560    00000040     supporting_functions.obj (.const:$P$T0$1)
                  000135a0    0000003c     main_pem4f.oem4f (.const:ti_sysbios_knl_Task_Object__PARAMS__C)
                  000135dc    00000034     main_pem4f.oem4f (.const:ti_sysbios_knl_Mailbox_Object__PARAMS__C)
                  00013610    00000030     main_pem4f.oem4f (.const:ti_sysbios_family_arm_m3_Hwi_Object__PARAMS__C)
                  00013640    00000030     main_pem4f.oem4f (.const:xdc_runtime_Startup_sfxnTab__A)
                  00013670    00000028     rtsv7M4_T_le_v4SPD16_eabi.lib : typeinfo_.obj (.const:.typeinfo:_ZTSN10__cxxabiv123__fundamental_type_infoE)
                  00013698    00000028     drivers_MSP432P401R.aem4f : UARTMSP432.oem4f (.const:UARTMSP432_fxnTable)
                  000136c0    00000028     main_pem4f.oem4f (.const:ti_sysbios_heaps_HeapMem_Module__FXNS__C)
                  000136e8    00000028     main_pem4f.oem4f (.const:ti_uia_loggers_LoggerStopMode_Object__PARAMS__C)
                  00013710    00000025     rtsv7M4_T_le_v4SPD16_eabi.lib : typeinfo_.obj (.const:.typeinfo:_ZTSN10__cxxabiv120__si_class_type_infoE)
                  00013735    00000024                                   : typeinfo_.obj (.const:.typeinfo:_ZTSN10__cxxabiv119__pointer_type_infoE)
                  00013759    00000001     --HOLE-- [fill = 0]
                  0001375a    00000002     main_pem4f.oem4f (.const:ti_sysbios_family_arm_m3_Hwi_Module__id__C)
                  0001375c    00000024     MSP_EXP432P401R.obj (.const:UART_config)
                  00013780    00000024     drivers_MSP432P401R.aem4f : UART.oem4f (.const:UART_defaultParams)
                  000137a4    00000024                               : UARTMSP432.oem4f (.const)
                  000137c8    00000024     main_pem4f.oem4f (.const:ti_sysbios_gates_GateHwi_Module__FXNS__C)
                  000137ec    00000024     main_pem4f.oem4f (.const:ti_sysbios_gates_GateMutexPri_Module__FXNS__C)
                  00013810    00000024     main_pem4f.oem4f (.const:ti_sysbios_gates_GateMutex_Module__FXNS__C)
                  00013834    00000024     main_pem4f.oem4f (.const:ti_sysbios_heaps_HeapMem_Object__PARAMS__C)
                  00013858    00000024     main_pem4f.oem4f (.const:ti_sysbios_knl_Clock_Object__PARAMS__C)
                  0001387c    00000024     main_pem4f.oem4f (.const:ti_sysbios_knl_Semaphore_Object__PARAMS__C)
                  000138a0    00000022     rtsv7M4_T_le_v4SPD16_eabi.lib : typeinfo_.obj (.const:.typeinfo:_ZTSN10__cxxabiv117__class_type_infoE)
                  000138c2    00000022                                   : typeinfo_.obj (.const:.typeinfo:_ZTSN10__cxxabiv117__pbase_type_infoE)
                  000138e4    00000020     kalman.obj (.const:_ZTV13kalman_filter)
                  00013904    00000020     sensors.obj (.const:_ZTV14sensor_control)
                  00013924    00000020     MAES_lib.lib : User_Cond.obj (.const:_ZTVN4MAES13USER_DEF_CONDE)
                  00013944    00000020                  : Behaviour.obj (.const:_ZTVN4MAES15CyclicBehaviourE)
                  00013964    00000020                  : Behaviour.obj (.const:_ZTVN4MAES16OneShotBehaviourE)
                  00013984    00000020                  : Behaviour.obj (.const:_ZTVN4MAES17Generic_BehaviourE)
                  000139a4    00000020     drivers_MSP432P401R.aem4f : I2CMSP432.oem4f (.const)
                  000139c4    00000020     main_pem4f.oem4f (.const:ti_sysbios_family_arm_m3_Hwi_Object__DESC__C)
                  000139e4    00000020     main_pem4f.oem4f (.const:ti_sysbios_gates_GateHwi_Object__DESC__C)
                  00013a04    00000020     main_pem4f.oem4f (.const:ti_sysbios_gates_GateMutexPri_Object__DESC__C)
                  00013a24    00000020     main_pem4f.oem4f (.const:ti_sysbios_gates_GateMutex_Object__DESC__C)
                  00013a44    00000020     main_pem4f.oem4f (.const:ti_sysbios_heaps_HeapMem_Object__DESC__C)
                  00013a64    00000020     main_pem4f.oem4f (.const:ti_sysbios_knl_Clock_Object__DESC__C)
                  00013a84    00000020     main_pem4f.oem4f (.const:ti_sysbios_knl_Mailbox_Object__DESC__C)
                  00013aa4    00000020     main_pem4f.oem4f (.const:ti_sysbios_knl_Queue_Object__DESC__C)
                  00013ac4    00000020     main_pem4f.oem4f (.const:ti_sysbios_knl_Semaphore_Object__DESC__C)
                  00013ae4    00000020     main_pem4f.oem4f (.const:ti_sysbios_knl_Task_Object__DESC__C)
                  00013b04    00000020     main_pem4f.oem4f (.const:ti_uia_loggers_LoggerStopMode_Object__DESC__C)
                  00013b24    0000001b     MAES_lib.lib : Behaviour.obj (.const:.typeinfo:_ZTSN4MAES17Generic_BehaviourE)
                  00013b3f    0000001a                  : Behaviour.obj (.const:.typeinfo:_ZTSN4MAES16OneShotBehaviourE)
                  00013b59    00000019                  : Behaviour.obj (.const:.typeinfo:_ZTSN4MAES15CyclicBehaviourE)
                  00013b72    00000002     main_pem4f.oem4f (.const:ti_sysbios_family_arm_m3_Hwi_Module__loggerDefined__C)
                  00013b74    00000018     rtsv7M4_T_le_v4SPD16_eabi.lib : e_powf.obj (.const:$O1$$)
                  00013b8c    00000018     sensors.obj (.const:.string:_ZZN14sensor_control5setupEvEs)
                  00013ba4    00000018     MSP_EXP432P401R.obj (.const:I2C_config)
                  00013bbc    00000018     main_pem4f.oem4f (.const:ti_sysbios_gates_GateHwi_Object__PARAMS__C)
                  00013bd4    00000018     main_pem4f.oem4f (.const:ti_sysbios_gates_GateMutexPri_Object__PARAMS__C)
                  00013bec    00000018     main_pem4f.oem4f (.const:ti_sysbios_gates_GateMutex_Object__PARAMS__C)
                  00013c04    00000018     main_pem4f.oem4f (.const:ti_sysbios_knl_Queue_Object__PARAMS__C)
                  00013c1c    00000018     main_pem4f.oem4f (.const:ti_sysbios_knl_Task_hooks__A)
                  00013c34    00000018     main_pem4f.oem4f (.const:xdc_runtime_Startup_sfxnRts__A)
                  00013c4c    00000017     MAES_lib.lib : User_Cond.obj (.const:.typeinfo:_ZTSN4MAES13USER_DEF_CONDE)
                  00013c63    00000016     sensors.obj (.const:.string:_ZZN14sensor_control5setupEvEs_3)
                  00013c79    00000015     sensors.obj (.const:.string:_ZZN14sensor_control5setupEvEs_1)
                  00013c8e    00000002     main_pem4f.oem4f (.const:ti_sysbios_family_arm_m3_Timer_Module__id__C)
                  00013c90    00000014     MSP_EXP432P401R.obj (.const:GPIOMSP432_config)
                  00013ca4    00000013     sensors.obj (.const:.string:_ZZN14sensor_control5setupEvEs_2)
                  00013cb7    00000012     sensors.obj (.const:.string:_ZZN14sensor_control5setupEvEs_0)
                  00013cc9    00000011     sensors.obj (.const:.typeinfo:_ZTS14sensor_control)
                  00013cda    00000002     main_pem4f.oem4f (.const:ti_sysbios_family_arm_m3_TimestampProvider_configTimer__C)
                  00013cdc    00000010     rtsv7M4_T_le_v4SPD16_eabi.lib : typeinfo_.obj (.const:.typeinfo:_ZTIPKe)
                  00013cec    00000010     kalman.obj (.const:.typeinfo:_ZTS13kalman_filter)
                  00013cfc    00000010     MSP_EXP432P401R.obj (.const:PowerMSP432_config)
                  00013d0c    00000010     rtsv7M4_T_le_v4SPD16_eabi.lib : typeinfo_.obj (.const:_ZTVN10__cxxabiv117__class_type_infoE)
                  00013d1c    00000010                                   : typeinfo_.obj (.const:_ZTVN10__cxxabiv119__pointer_type_infoE)
                  00013d2c    00000010                                   : typeinfo_.obj (.const:_ZTVN10__cxxabiv120__si_class_type_infoE)
                  00013d3c    00000010                                   : typeinfo_.obj (.const:_ZTVN10__cxxabiv123__fundamental_type_infoE)
                  00013d4c    00000010     drivers_MSP432P401R.aem4f : I2C.oem4f (.const)
                  00013d5c    00000010     MSP_EXP432P401R.obj (.const:i2cMSP432HWAttrs)
                  00013d6c    00000010     main_pem4f.oem4f (.const:xdc_runtime_Text_nodeTab__A)
                  00013d7c    0000000d     rtsv7M4_T_le_v4SPD16_eabi.lib : typeinfo_.obj (.const:.typeinfo:_ZTSSt9type_info)
                  00013d89    0000000c     drivers_MSP432P401R.aem4f : GPIOMSP432.oem4f (.const:.string)
                  00013d95    00000001     --HOLE-- [fill = 0]
                  00013d96    00000002     main_pem4f.oem4f (.const:ti_sysbios_gates_GateMutexPri_Module__id__C)
                  00013d98    0000000c     kalman.obj (.const:.typeinfo:_ZTI13kalman_filter)
                  00013da4    0000000c     sensors.obj (.const:.typeinfo:_ZTI14sensor_control)
                  00013db0    0000000c     rtsv7M4_T_le_v4SPD16_eabi.lib : typeinfo_.obj (.const:.typeinfo:_ZTIN10__cxxabiv117__class_type_infoE)
                  00013dbc    0000000c                                   : typeinfo_.obj (.const:.typeinfo:_ZTIN10__cxxabiv117__pbase_type_infoE)
                  00013dc8    0000000c                                   : typeinfo_.obj (.const:.typeinfo:_ZTIN10__cxxabiv119__pointer_type_infoE)
                  00013dd4    0000000c                                   : typeinfo_.obj (.const:.typeinfo:_ZTIN10__cxxabiv120__si_class_type_infoE)
                  00013de0    0000000c                                   : typeinfo_.obj (.const:.typeinfo:_ZTIN10__cxxabiv123__fundamental_type_infoE)
                  00013dec    0000000c     MAES_lib.lib : Behaviour.obj (.const:.typeinfo:_ZTIN4MAES15CyclicBehaviourE)
                  00013df8    0000000c                  : Behaviour.obj (.const:.typeinfo:_ZTIN4MAES16OneShotBehaviourE)
                  00013e04    0000000c     main_pem4f.oem4f (.const:ti_sysbios_knl_Idle_funcList__A)
                  00013e10    0000000c     main_pem4f.oem4f (.const:xdc_runtime_Startup_firstFxns__A)
                  00013e1c    00000008     MAES_lib.lib : User_Cond.obj (.const:.typeinfo:_ZTIN4MAES13USER_DEF_CONDE)
                  00013e24    00000008                  : Behaviour.obj (.const:.typeinfo:_ZTIN4MAES17Generic_BehaviourE)
                  00013e2c    00000008     rtsv7M4_T_le_v4SPD16_eabi.lib : typeinfo_.obj (.const:.typeinfo:_ZTISt9type_info)
                  00013e34    00000008                                   : typeinfo_.obj (.const:.typeinfo:_ZTIe)
                  00013e3c    00000008     main_pem4f.oem4f (.const:ti_sysbios_family_arm_m3_Hwi_excHookFuncs__A)
                  00013e44    00000008     main_pem4f.oem4f (.const:ti_sysbios_knl_Idle_funcList__C)
                  00013e4c    00000008     main_pem4f.oem4f (.const:ti_sysbios_knl_Task_hooks__C)
                  00013e54    00000008     main_pem4f.oem4f (.const:xdc_runtime_Startup_firstFxns__C)
                  00013e5c    00000008     main_pem4f.oem4f (.const:xdc_runtime_Startup_lastFxns__C)
                  00013e64    00000005     drivers_MSP432P401R.aem4f : UARTMSP432.oem4f (.const:.string)
                  00013e69    00000004     rtsv7M4_T_le_v4SPD16_eabi.lib : typeinfo_.obj (.const:.typeinfo:_ZTSPKe)
                  00013e6d    00000001     --HOLE-- [fill = 0]
                  00013e6e    00000002     main_pem4f.oem4f (.const:ti_sysbios_gates_GateMutex_Module__id__C)
                  00013e70    00000004     main_pem4f.oem4f (.const:ti_sysbios_family_arm_m3_Hwi_E_NMI__C)
                  00013e74    00000004     main_pem4f.oem4f (.const:ti_sysbios_family_arm_m3_Hwi_E_alreadyDefined__C)
                  00013e78    00000004     main_pem4f.oem4f (.const:ti_sysbios_family_arm_m3_Hwi_E_busFault__C)
                  00013e7c    00000004     main_pem4f.oem4f (.const:ti_sysbios_family_arm_m3_Hwi_E_debugMon__C)
                  00013e80    00000004     main_pem4f.oem4f (.const:ti_sysbios_family_arm_m3_Hwi_E_hardFault__C)
                  00013e84    00000004     main_pem4f.oem4f (.const:ti_sysbios_family_arm_m3_Hwi_E_memFault__C)
                  00013e88    00000004     main_pem4f.oem4f (.const:ti_sysbios_family_arm_m3_Hwi_E_noIsr__C)
                  00013e8c    00000004     main_pem4f.oem4f (.const:ti_sysbios_family_arm_m3_Hwi_E_reserved__C)
                  00013e90    00000004     main_pem4f.oem4f (.const:ti_sysbios_family_arm_m3_Hwi_E_svCall__C)
                  00013e94    00000004     main_pem4f.oem4f (.const:ti_sysbios_family_arm_m3_Hwi_E_usageFault__C)
                  00013e98    00000004     main_pem4f.oem4f (.const:ti_sysbios_family_arm_m3_Hwi_LD_end__C)
                  00013e9c    00000004     main_pem4f.oem4f (.const:ti_sysbios_family_arm_m3_Hwi_LM_begin__C)
                  00013ea0    00000004     main_pem4f.oem4f (.const:ti_sysbios_family_arm_m3_Hwi_Module__diagsEnabled__C)
                  00013ea4    00000004     main_pem4f.oem4f (.const:ti_sysbios_family_arm_m3_Hwi_Module__diagsIncluded__C)
                  00013ea8    00000004     main_pem4f.oem4f (.const:ti_sysbios_family_arm_m3_Hwi_Module__diagsMask__C)
                  00013eac    00000004     main_pem4f.oem4f (.const:ti_sysbios_family_arm_m3_Hwi_Module__loggerFxn1__C)
                  00013eb0    00000004     main_pem4f.oem4f (.const:ti_sysbios_family_arm_m3_Hwi_Module__loggerFxn8__C)
                  00013eb4    00000004     main_pem4f.oem4f (.const:ti_sysbios_family_arm_m3_Hwi_Module__loggerObj__C)
                  00013eb8    00000004     main_pem4f.oem4f (.const:ti_sysbios_family_arm_m3_Hwi_NUM_INTERRUPTS__C)
                  00013ebc    00000004     main_pem4f.oem4f (.const:ti_sysbios_family_arm_m3_Hwi_Object__count__C)
                  00013ec0    00000004     main_pem4f.oem4f (.const:ti_sysbios_family_arm_m3_Hwi_ccr__C)
                  00013ec4    00000004     main_pem4f.oem4f (.const:ti_sysbios_family_arm_m3_Hwi_excHandlerFunc__C)
                  00013ec8    00000004     main_pem4f.oem4f (.const:ti_sysbios_family_arm_m3_Hwi_excHookFuncs__C)
                  00013ecc    00000004     main_pem4f.oem4f (.const:ti_sysbios_family_arm_m3_Hwi_nullIsrFunc__C)
                  00013ed0    00000004     main_pem4f.oem4f (.const:ti_sysbios_family_arm_m3_Hwi_priGroup__C)
                  00013ed4    00000004     main_pem4f.oem4f (.const:ti_sysbios_family_arm_m3_TaskSupport_stackAlignment__C)
                  00013ed8    00000004     main_pem4f.oem4f (.const:ti_sysbios_family_arm_m3_Timer_E_cannotSupport__C)
                  00013edc    00000004     main_pem4f.oem4f (.const:ti_sysbios_family_arm_m3_Timer_startupNeeded__C)
                  00013ee0    00000004     main_pem4f.oem4f (.const:ti_sysbios_family_arm_msp432_Timer_numTimerDevices__C)
                  00013ee4    00000004     main_pem4f.oem4f (.const:ti_sysbios_family_arm_msp432_Timer_startupNeeded__C)
                  00013ee8    00000004     main_pem4f.oem4f (.const:ti_sysbios_gates_GateMutexPri_A_badContext__C)
                  00013eec    00000004     main_pem4f.oem4f (.const:ti_sysbios_gates_GateMutexPri_A_enterTaskDisabled__C)
                  00013ef0    00000004     main_pem4f.oem4f (.const:ti_sysbios_gates_GateMutexPri_Instance_State_pendQ__O)
                  00013ef4    00000004     main_pem4f.oem4f (.const:ti_sysbios_gates_GateMutexPri_Module__diagsEnabled__C)
                  00013ef8    00000004     main_pem4f.oem4f (.const:ti_sysbios_gates_GateMutexPri_Module__diagsIncluded__C)
                  00013efc    00000004     main_pem4f.oem4f (.const:ti_sysbios_gates_GateMutexPri_Module__diagsMask__C)
                  00013f00    00000004     main_pem4f.oem4f (.const:ti_sysbios_gates_GateMutex_A_badContext__C)
                  00013f04    00000004     main_pem4f.oem4f (.const:ti_sysbios_gates_GateMutex_Instance_State_sem__O)
                  00013f08    00000004     main_pem4f.oem4f (.const:ti_sysbios_gates_GateMutex_Module__diagsEnabled__C)
                  00013f0c    00000004     main_pem4f.oem4f (.const:ti_sysbios_gates_GateMutex_Module__diagsIncluded__C)
                  00013f10    00000004     main_pem4f.oem4f (.const:ti_sysbios_gates_GateMutex_Module__diagsMask__C)
                  00013f14    00000004     main_pem4f.oem4f (.const:ti_sysbios_hal_Hwi_E_stackOverflow__C)
                  00013f18    00000004     main_pem4f.oem4f (.const:ti_sysbios_heaps_HeapMem_A_align__C)
                  00013f1c    00000004     main_pem4f.oem4f (.const:ti_sysbios_heaps_HeapMem_A_heapSize__C)
                  00013f20    00000004     main_pem4f.oem4f (.const:ti_sysbios_heaps_HeapMem_A_invalidFree__C)
                  00013f24    00000004     main_pem4f.oem4f (.const:ti_sysbios_heaps_HeapMem_A_zeroBlock__C)
                  00013f28    00000004     main_pem4f.oem4f (.const:ti_sysbios_heaps_HeapMem_E_memory__C)
                  00013f2c    00000004     main_pem4f.oem4f (.const:ti_sysbios_heaps_HeapMem_Module__diagsEnabled__C)
                  00013f30    00000004     main_pem4f.oem4f (.const:ti_sysbios_heaps_HeapMem_Module__diagsIncluded__C)
                  00013f34    00000004     main_pem4f.oem4f (.const:ti_sysbios_heaps_HeapMem_Module__diagsMask__C)
                  00013f38    00000004     main_pem4f.oem4f (.const:ti_sysbios_heaps_HeapMem_Module__gateObj__C)
                  00013f3c    00000004     main_pem4f.oem4f (.const:ti_sysbios_heaps_HeapMem_Object__count__C)
                  00013f40    00000004     main_pem4f.oem4f (.const:ti_sysbios_heaps_HeapMem_reqAlign__C)
                  00013f44    00000004     main_pem4f.oem4f (.const:ti_sysbios_knl_Clock_A_badThreadType__C)
                  00013f48    00000004     main_pem4f.oem4f (.const:ti_sysbios_knl_Clock_LM_begin__C)
                  00013f4c    00000004     main_pem4f.oem4f (.const:ti_sysbios_knl_Clock_LM_tick__C)
                  00013f50    00000004     main_pem4f.oem4f (.const:ti_sysbios_knl_Clock_LW_delayed__C)
                  00013f54    00000004     main_pem4f.oem4f (.const:ti_sysbios_knl_Clock_Module_State_clockQ__O)
                  00013f58    00000004     main_pem4f.oem4f (.const:ti_sysbios_knl_Clock_Module__diagsEnabled__C)
                  00013f5c    00000004     main_pem4f.oem4f (.const:ti_sysbios_knl_Clock_Module__diagsIncluded__C)
                  00013f60    00000004     main_pem4f.oem4f (.const:ti_sysbios_knl_Clock_Module__diagsMask__C)
                  00013f64    00000004     main_pem4f.oem4f (.const:ti_sysbios_knl_Clock_Module__loggerFxn1__C)
                  00013f68    00000004     main_pem4f.oem4f (.const:ti_sysbios_knl_Clock_Module__loggerFxn2__C)
                  00013f6c    00000004     main_pem4f.oem4f (.const:ti_sysbios_knl_Clock_Module__loggerObj__C)
                  00013f70    00000004     main_pem4f.oem4f (.const:ti_sysbios_knl_Mailbox_A_invalidBufSize__C)
                  00013f74    00000004     main_pem4f.oem4f (.const:ti_sysbios_knl_Mailbox_Instance_State_dataQue__O)
                  00013f78    00000004     main_pem4f.oem4f (.const:ti_sysbios_knl_Mailbox_Instance_State_dataSem__O)
                  00013f7c    00000004     main_pem4f.oem4f (.const:ti_sysbios_knl_Mailbox_Instance_State_freeQue__O)
                  00013f80    00000004     main_pem4f.oem4f (.const:ti_sysbios_knl_Mailbox_Instance_State_freeSem__O)
                  00013f84    00000004     main_pem4f.oem4f (.const:ti_sysbios_knl_Mailbox_Module__diagsEnabled__C)
                  00013f88    00000004     main_pem4f.oem4f (.const:ti_sysbios_knl_Mailbox_Module__diagsIncluded__C)
                  00013f8c    00000004     main_pem4f.oem4f (.const:ti_sysbios_knl_Mailbox_Module__diagsMask__C)
                  00013f90    00000004     main_pem4f.oem4f (.const:ti_sysbios_knl_Mailbox_Object__count__C)
                  00013f94    00000004     main_pem4f.oem4f (.const:ti_sysbios_knl_Mailbox_maxTypeAlign__C)
                  00013f98    00000004     main_pem4f.oem4f (.const:ti_sysbios_knl_Semaphore_A_badContext__C)
                  00013f9c    00000004     main_pem4f.oem4f (.const:ti_sysbios_knl_Semaphore_A_noEvents__C)
                  00013fa0    00000004     main_pem4f.oem4f (.const:ti_sysbios_knl_Semaphore_A_overflow__C)
                  00013fa4    00000004     main_pem4f.oem4f (.const:ti_sysbios_knl_Semaphore_A_pendTaskDisabled__C)
                  00013fa8    00000004     main_pem4f.oem4f (.const:ti_sysbios_knl_Semaphore_Instance_State_pendQ__O)
                  00013fac    00000004     main_pem4f.oem4f (.const:ti_sysbios_knl_Semaphore_LM_pend__C)
                  00013fb0    00000004     main_pem4f.oem4f (.const:ti_sysbios_knl_Semaphore_LM_post__C)
                  00013fb4    00000004     main_pem4f.oem4f (.const:ti_sysbios_knl_Semaphore_Module__diagsEnabled__C)
                  00013fb8    00000004     main_pem4f.oem4f (.const:ti_sysbios_knl_Semaphore_Module__diagsIncluded__C)
                  00013fbc    00000004     main_pem4f.oem4f (.const:ti_sysbios_knl_Semaphore_Module__diagsMask__C)
                  00013fc0    00000004     main_pem4f.oem4f (.const:ti_sysbios_knl_Semaphore_Module__loggerFxn2__C)
                  00013fc4    00000004     main_pem4f.oem4f (.const:ti_sysbios_knl_Semaphore_Module__loggerFxn4__C)
                  00013fc8    00000004     main_pem4f.oem4f (.const:ti_sysbios_knl_Semaphore_Module__loggerObj__C)
                  00013fcc    00000004     main_pem4f.oem4f (.const:ti_sysbios_knl_Swi_LD_end__C)
                  00013fd0    00000004     main_pem4f.oem4f (.const:ti_sysbios_knl_Swi_LM_begin__C)
                  00013fd4    00000004     main_pem4f.oem4f (.const:ti_sysbios_knl_Swi_LM_post__C)
                  00013fd8    00000004     main_pem4f.oem4f (.const:ti_sysbios_knl_Swi_Module__diagsEnabled__C)
                  00013fdc    00000004     main_pem4f.oem4f (.const:ti_sysbios_knl_Swi_Module__diagsIncluded__C)
                  00013fe0    00000004     main_pem4f.oem4f (.const:ti_sysbios_knl_Swi_Module__diagsMask__C)
                  00013fe4    00000004     main_pem4f.oem4f (.const:ti_sysbios_knl_Swi_Module__loggerFxn1__C)
                  00013fe8    00000004     main_pem4f.oem4f (.const:ti_sysbios_knl_Swi_Module__loggerFxn4__C)
                  00013fec    00000004     main_pem4f.oem4f (.const:ti_sysbios_knl_Swi_Module__loggerObj__C)
                  00013ff0    00000004     main_pem4f.oem4f (.const:ti_sysbios_knl_Swi_Object__count__C)
                  00013ff4    00000004     main_pem4f.oem4f (.const:ti_sysbios_knl_Task_A_badPriority__C)
                  00013ff8    00000004     main_pem4f.oem4f (.const:ti_sysbios_knl_Task_A_badTaskState__C)
                  00013ffc    00000004     main_pem4f.oem4f (.const:ti_sysbios_knl_Task_A_badThreadType__C)
                  00014000    00000004     main_pem4f.oem4f (.const:ti_sysbios_knl_Task_A_badTimeout__C)
                  00014004    00000004     main_pem4f.oem4f (.const:ti_sysbios_knl_Task_A_noPendElem__C)
                  00014008    00000004     main_pem4f.oem4f (.const:ti_sysbios_knl_Task_A_sleepTaskDisabled__C)
                  0001400c    00000004     main_pem4f.oem4f (.const:ti_sysbios_knl_Task_E_spOutOfBounds__C)
                  00014010    00000004     main_pem4f.oem4f (.const:ti_sysbios_knl_Task_E_stackOverflow__C)
                  00014014    00000004     main_pem4f.oem4f (.const:ti_sysbios_knl_Task_LD_block__C)
                  00014018    00000004     main_pem4f.oem4f (.const:ti_sysbios_knl_Task_LD_exit__C)
                  0001401c    00000004     main_pem4f.oem4f (.const:ti_sysbios_knl_Task_LD_ready__C)
                  00014020    00000004     main_pem4f.oem4f (.const:ti_sysbios_knl_Task_LM_setPri__C)
                  00014024    00000004     main_pem4f.oem4f (.const:ti_sysbios_knl_Task_LM_sleep__C)
                  00014028    00000004     main_pem4f.oem4f (.const:ti_sysbios_knl_Task_LM_switch__C)
                  0001402c    00000004     main_pem4f.oem4f (.const:ti_sysbios_knl_Task_LM_yield__C)
                  00014030    00000004     main_pem4f.oem4f (.const:ti_sysbios_knl_Task_Module_State_inactiveQ__O)
                  00014034    00000004     main_pem4f.oem4f (.const:ti_sysbios_knl_Task_Module__diagsEnabled__C)
                  00014038    00000004     main_pem4f.oem4f (.const:ti_sysbios_knl_Task_Module__diagsIncluded__C)
                  0001403c    00000004     main_pem4f.oem4f (.const:ti_sysbios_knl_Task_Module__diagsMask__C)
                  00014040    00000004     main_pem4f.oem4f (.const:ti_sysbios_knl_Task_Module__loggerFxn2__C)
                  00014044    00000004     main_pem4f.oem4f (.const:ti_sysbios_knl_Task_Module__loggerFxn4__C)
                  00014048    00000004     main_pem4f.oem4f (.const:ti_sysbios_knl_Task_Module__loggerObj__C)
                  0001404c    00000004     main_pem4f.oem4f (.const:ti_sysbios_knl_Task_Object__count__C)
                  00014050    00000004     main_pem4f.oem4f (.const:ti_sysbios_knl_Task_Object__heap__C)
                  00014054    00000004     main_pem4f.oem4f (.const:ti_sysbios_knl_Task_allBlockedFunc__C)
                  00014058    00000004     main_pem4f.oem4f (.const:ti_sysbios_knl_Task_defaultStackHeap__C)
                  0001405c    00000004     main_pem4f.oem4f (.const:ti_sysbios_knl_Task_defaultStackSize__C)
                  00014060    00000004     main_pem4f.oem4f (.const:ti_sysbios_knl_Task_numConstructedTasks__C)
                  00014064    00000004     main_pem4f.oem4f (.const:ti_sysbios_knl_Task_numPriorities__C)
                  00014068    00000004     main_pem4f.oem4f (.const:ti_sysbios_utils_Load_LS_cpuLoad__C)
                  0001406c    00000004     main_pem4f.oem4f (.const:ti_sysbios_utils_Load_LS_taskLoad__C)
                  00014070    00000004     main_pem4f.oem4f (.const:ti_sysbios_utils_Load_Module_State_taskList__O)
                  00014074    00000004     main_pem4f.oem4f (.const:ti_sysbios_utils_Load_Module__diagsEnabled__C)
                  00014078    00000004     main_pem4f.oem4f (.const:ti_sysbios_utils_Load_Module__diagsIncluded__C)
                  0001407c    00000004     main_pem4f.oem4f (.const:ti_sysbios_utils_Load_Module__diagsMask__C)
                  00014080    00000004     main_pem4f.oem4f (.const:ti_sysbios_utils_Load_Module__loggerFxn1__C)
                  00014084    00000004     main_pem4f.oem4f (.const:ti_sysbios_utils_Load_Module__loggerFxn4__C)
                  00014088    00000004     main_pem4f.oem4f (.const:ti_sysbios_utils_Load_Module__loggerObj__C)
                  0001408c    00000004     main_pem4f.oem4f (.const:ti_sysbios_utils_Load_postUpdate__C)
                  00014090    00000004     main_pem4f.oem4f (.const:ti_sysbios_utils_Load_windowInMs__C)
                  00014094    00000004     main_pem4f.oem4f (.const:ti_uia_loggers_LoggerStopMode_Module__diagsEnabled__C)
                  00014098    00000004     main_pem4f.oem4f (.const:ti_uia_loggers_LoggerStopMode_Module__diagsIncluded__C)
                  0001409c    00000004     main_pem4f.oem4f (.const:ti_uia_loggers_LoggerStopMode_Module__diagsMask__C)
                  000140a0    00000004     main_pem4f.oem4f (.const:ti_uia_loggers_LoggerStopMode_Object__count__C)
                  000140a4    00000004     main_pem4f.oem4f (.const:ti_uia_runtime_ILoggerSnapshot_Interface__BASE__C)
                  000140a8    00000004     main_pem4f.oem4f (.const:ti_uia_runtime_IUIATransfer_Interface__BASE__C)
                  000140ac    00000004     main_pem4f.oem4f (.const:xdc_runtime_Assert_E_assertFailed__C)
                  000140b0    00000004     main_pem4f.oem4f (.const:xdc_runtime_Core_A_initializedParams__C)
                  000140b4    00000004     main_pem4f.oem4f (.const:xdc_runtime_Core_Module__diagsEnabled__C)
                  000140b8    00000004     main_pem4f.oem4f (.const:xdc_runtime_Core_Module__diagsIncluded__C)
                  000140bc    00000004     main_pem4f.oem4f (.const:xdc_runtime_Core_Module__diagsMask__C)
                  000140c0    00000004     main_pem4f.oem4f (.const:xdc_runtime_Error_E_memory__C)
                  000140c4    00000004     main_pem4f.oem4f (.const:xdc_runtime_Error_Module__diagsEnabled__C)
                  000140c8    00000004     main_pem4f.oem4f (.const:xdc_runtime_Error_Module__diagsIncluded__C)
                  000140cc    00000004     main_pem4f.oem4f (.const:xdc_runtime_Error_Module__diagsMask__C)
                  000140d0    00000004     main_pem4f.oem4f (.const:xdc_runtime_Error_Module__loggerFxn8__C)
                  000140d4    00000004     main_pem4f.oem4f (.const:xdc_runtime_Error_Module__loggerObj__C)
                  000140d8    00000004     main_pem4f.oem4f (.const:xdc_runtime_Error_policyFxn__C)
                  000140dc    00000004     main_pem4f.oem4f (.const:xdc_runtime_Error_raiseHook__C)
                  000140e0    00000004     main_pem4f.oem4f (.const:xdc_runtime_IFilterLogger_Interface__BASE__C)
                  000140e4    00000004     main_pem4f.oem4f (.const:xdc_runtime_IGateProvider_Interface__BASE__C)
                  000140e8    00000004     main_pem4f.oem4f (.const:xdc_runtime_IHeap_Interface__BASE__C)
                  000140ec    00000004     main_pem4f.oem4f (.const:xdc_runtime_ILogger_Interface__BASE__C)
                  000140f0    00000004     main_pem4f.oem4f (.const:xdc_runtime_IModule_Interface__BASE__C)
                  000140f4    00000004     main_pem4f.oem4f (.const:xdc_runtime_Log_L_error__C)
                  000140f8    00000004     main_pem4f.oem4f (.const:xdc_runtime_Memory_defaultHeapInstance__C)
                  000140fc    00000004     main_pem4f.oem4f (.const:xdc_runtime_Startup_execImpl__C)
                  00014100    00000004     main_pem4f.oem4f (.const:xdc_runtime_Startup_lastFxns__A)
                  00014104    00000004     main_pem4f.oem4f (.const:xdc_runtime_Startup_maxPasses__C)
                  00014108    00000004     main_pem4f.oem4f (.const:xdc_runtime_Startup_sfxnRts__C)
                  0001410c    00000004     main_pem4f.oem4f (.const:xdc_runtime_Startup_sfxnTab__C)
                  00014110    00000004     main_pem4f.oem4f (.const:xdc_runtime_SysMin_bufSize__C)
                  00014114    00000004     main_pem4f.oem4f (.const:xdc_runtime_SysMin_outputFunc__C)
                  00014118    00000004     main_pem4f.oem4f (.const:xdc_runtime_System_Module__gateObj__C)
                  0001411c    00000004     main_pem4f.oem4f (.const:xdc_runtime_System_abortFxn__C)
                  00014120    00000004     main_pem4f.oem4f (.const:xdc_runtime_System_exitFxn__C)
                  00014124    00000004     main_pem4f.oem4f (.const:xdc_runtime_System_extendFxn__C)
                  00014128    00000004     main_pem4f.oem4f (.const:xdc_runtime_System_maxAtexitHandlers__C)
                  0001412c    00000004     main_pem4f.oem4f (.const:xdc_runtime_Text_charTab__C)
                  00014130    00000004     main_pem4f.oem4f (.const:xdc_runtime_Text_nameEmpty__C)
                  00014134    00000004     main_pem4f.oem4f (.const:xdc_runtime_Text_nameStatic__C)
                  00014138    00000004     main_pem4f.oem4f (.const:xdc_runtime_Text_nameUnknown__C)
                  0001413c    00000004     main_pem4f.oem4f (.const:xdc_runtime_Text_nodeTab__C)
                  00014140    00000004     main_pem4f.oem4f (.const:xdc_runtime_Text_visitRopeFxn__C)
                  00014144    00000002     main_pem4f.oem4f (.const:ti_sysbios_hal_Hwi_Module__id__C)
                  00014146    00000002     main_pem4f.oem4f (.const:ti_sysbios_heaps_HeapMem_Module__id__C)
                  00014148    00000002     main_pem4f.oem4f (.const:ti_sysbios_knl_Clock_Module__id__C)
                  0001414a    00000002     main_pem4f.oem4f (.const:ti_sysbios_knl_Clock_Module__loggerDefined__C)
                  0001414c    00000002     main_pem4f.oem4f (.const:ti_sysbios_knl_Mailbox_Module__id__C)
                  0001414e    00000002     main_pem4f.oem4f (.const:ti_sysbios_knl_Semaphore_Module__id__C)
                  00014150    00000002     main_pem4f.oem4f (.const:ti_sysbios_knl_Semaphore_Module__loggerDefined__C)
                  00014152    00000002     main_pem4f.oem4f (.const:ti_sysbios_knl_Swi_Module__id__C)
                  00014154    00000002     main_pem4f.oem4f (.const:ti_sysbios_knl_Swi_Module__loggerDefined__C)
                  00014156    00000002     main_pem4f.oem4f (.const:ti_sysbios_knl_Task_Module__id__C)
                  00014158    00000002     main_pem4f.oem4f (.const:ti_sysbios_knl_Task_Module__loggerDefined__C)
                  0001415a    00000002     main_pem4f.oem4f (.const:ti_sysbios_utils_Load_Module__id__C)
                  0001415c    00000002     main_pem4f.oem4f (.const:ti_sysbios_utils_Load_Module__loggerDefined__C)
                  0001415e    00000002     main_pem4f.oem4f (.const:ti_sysbios_utils_Load_autoAddTasks__C)
                  00014160    00000002     main_pem4f.oem4f (.const:ti_sysbios_utils_Load_updateInIdle__C)
                  00014162    00000002     main_pem4f.oem4f (.const:ti_uia_loggers_LoggerStopMode_Module__id__C)
                  00014164    00000002     main_pem4f.oem4f (.const:ti_uia_loggers_LoggerStopMode_isTimestampEnabled__C)
                  00014166    00000002     main_pem4f.oem4f (.const:xdc_runtime_Core_Module__id__C)
                  00014168    00000002     main_pem4f.oem4f (.const:xdc_runtime_Error_Module__loggerDefined__C)
                  0001416a    00000002     main_pem4f.oem4f (.const:xdc_runtime_Error_maxDepth__C)
                  0001416c    00000002     main_pem4f.oem4f (.const:xdc_runtime_Memory_Module__id__C)
                  0001416e    00000002     main_pem4f.oem4f (.const:xdc_runtime_SysMin_flushAtExit__C)
                  00014170    00000002     main_pem4f.oem4f (.const:xdc_runtime_Text_charCnt__C)
                  00014172    00000002     main_pem4f.oem4f (.const:xdc_runtime_Text_isLoaded__C)
                  00014174    00000002     main_pem4f.oem4f (.const:xdc_runtime_Text_registryModsLastId__C)
                  00014176    00000002     main_pem4f.oem4f (.const:xdc_runtime_Text_unnamedModsLastId__C)

.cinit     0    00014178    00000330     
                  00014178    000002fb     (.cinit..data.load) [load image, compression = lzss]
                  00014473    00000001     --HOLE-- [fill = 0]
                  00014474    0000000c     (__TI_handler_table)
                  00014480    00000008     (.cinit..bss.load) [load image, compression = zero_init]
                  00014488    00000008     (.cinit..vecs.load) [load image, compression = zero_init]
                  00014490    00000018     (__TI_cinit_table)

.resetVecs 
*          0    00000000    0000003c     
                  00000000    0000003c     main_pem4f.oem4f (.resetVecs)

.vecs      0    20000000    00000140     UNINITIALIZED
                  20000000    00000140     main_pem4f.oem4f (.vecs)

.bss       0    20000180    00008045     UNINITIALIZED
                  20000180    00002000     (.common:ti_sysbios_heaps_HeapMem_Instance_State_0_buf__A)
                  20002180    00001130     main.obj (.bss:AP)
                  200032b0    00001000     (.common:KALMANSTACK)
                  200042b0    00000048     (.common:i2cMSP432Objects)
                  200042f8    00000008     rtsv7M4_T_le_v4SPD16_eabi.lib : trgdrv.obj (.bss:parmbuf)
                  20004300    00001000     (.common:ti_uia_loggers_LoggerStopMode_Instance_State_0_packetArray__A)
                  20005300    00000800     (.common:SENSORSTACK)
                  20005b00    00000800     (.common:UARTSTACK)
                  20006300    0000036c     (.common:accel_fifo)
                  2000666c    0000036c     (.common:gyro_fifo)
                  200069d8    0000036c     (.common:mag_fifo)
                  20006d44    00000004     bmi160.obj (.bss)
                  20006d48    00000200     main_pem4f.oem4f (.bss:taskStackSection)
                  20006f48    00000030     drivers_MSP432P401R.aem4f : GPIOMSP432.oem4f (.bss:gpioCallbackInfo)
                  20006f78    00000008     (.common:Eg)
                  20006f80    00000200     (.common:ti_uia_loggers_LoggerStopMode_Instance_State_1_packetArray__A)
                  20007180    00000190     (.common:PData)
                  20007310    00000190     (.common:PhiData)
                  200074a0    00000190     (.common:QData)
                  20007630    00000140     (.common:ti_sysbios_family_arm_m3_Hwi_dispatchTable)
                  20007770    00000128     (.common:stringBuffer)
                  20007898    00000120     rtsv7M4_T_le_v4SPD16_eabi.lib : trgmsg.obj (.bss:_CIOBUF_)
                  200079b8    00000100     (.common:uartMSP432Objects)
                  20007ab8    000000f0     (.common:FData)
                  20007ba8    000000f0     (.common:KData)
                  20007c98    00000090     (.common:RData)
                  20007d28    00000080     (.common:xdc_runtime_SysMin_Module_State_0_outbuf__A)
                  20007da8    00000040     (.common:OmegaData)
                  20007de8    00000040     (.common:uartMSP432RingBuffer)
                  20007e28    00000030     (.common:XiData)
                  20007e58    00000028     (.common:xData)
                  20007e80    00000030     (.common:ti_uia_loggers_LoggerStopMode_Instance_State_0_hdr__A)
                  20007eb0    00000024     main.obj (.bss:Kalman_Agent)
                  20007ed4    00000024     main.obj (.bss:Sensor_Agent)
                  20007ef8    00000008     (.common:F)
                  20007f00    00000030     (.common:ti_uia_loggers_LoggerStopMode_Instance_State_1_hdr__A)
                  20007f30    00000024     main.obj (.bss:UART_Agent)
                  20007f54    00000024     (.common:EgData)
                  20007f78    00000024     (.common:uartParams)
                  20007f9c    00000020     (.common:rxBuffer)
                  20007fbc    0000001c     (.common:i2cTransaction)
                  20007fd8    00000018     (.common:fData)
                  20007ff0    00000018     (.common:gateParams)
                  20008008    00000018     (.common:zData)
                  20008020    00000014     (.common:s_bmi160)
                  20008034    00000010     bmi160.obj (.bss:mag_trim)
                  20008044    00000010     (.common:i2cParams)
                  20008054    0000000c     (.common:gData)
                  20008060    0000000c     (.common:gyro_measData)
                  2000806c    0000000c     (.common:gyro_meas_nextData)
                  20008078    0000000c     (.common:hData)
                  20008084    0000000c     (.common:s_magcompXYZ)
                  20008090    0000000c     (.common:sigmaWaData)
                  2000809c    0000000c     (.common:sigmaWmData)
                  200080a8    0000000c     (.common:sigmaaData)
                  200080b4    0000000c     (.common:sigmagData)
                  200080c0    0000000c     (.common:sigmamData)
                  200080cc    0000000c     (.common:txBuffer)
                  200080d8    00000008     (.common:K)
                  200080e0    00000008     (.common:Omega)
                  200080e8    00000008     (.common:P)
                  200080f0    00000008     (.common:Phi)
                  200080f8    00000008     (.common:Q)
                  20008100    00000008     (.common:R)
                  20008108    00000008     (.common:Xi)
                  20008110    00000008     (.common:f)
                  20008118    00000008     (.common:g)
                  20008120    00000008     (.common:gyro_meas)
                  20008128    00000008     (.common:gyro_meas_next)
                  20008130    00000008     (.common:h)
                  20008138    00000008     (.common:sigmaWa)
                  20008140    00000008     (.common:sigmaWm)
                  20008148    00000008     (.common:sigmaa)
                  20008150    00000008     (.common:sigmag)
                  20008158    00000008     (.common:sigmam)
                  20008160    00000008     (.common:x)
                  20008168    00000008     (.common:z)
                  20008170    00000006     (.common:accelxyz)
                  20008176    00000006     (.common:gyroxyz)
                  2000817c    00000006     (.common:s_accelXYZ)
                  20008182    00000006     (.common:s_gyroXYZ)
                  20008188    00000004     (.common:Kalman_AID)
                  2000818c    00000004     (.common:Sensor_AID)
                  20008190    00000004     (.common:UART_AID)
                  20008194    00000004     (.common:_ZSt16__dummy_typeinfo)
                  20008198    00000004     (.common:accSens)
                  2000819c    00000004     (.common:gatekey)
                  200081a0    00000004     (.common:gyroSens)
                  200081a4    00000004     (.common:i2c)
                  200081a8    00000004     (.common:i2cGate)
                  200081ac    00000004     (.common:magSens)
                  200081b0    00000004     (.common:ti_sysbios_knl_Task_Instance_State_0_hookEnv__A)
                  200081b4    00000004     (.common:ts)
                  200081b8    00000004     (.common:uart)
                  200081bc    00000002     (.common:gyro_off_x)
                  200081be    00000002     (.common:gyro_off_y)
                  200081c0    00000002     (.common:gyro_off_z)
                  200081c2    00000001     (.common:accel_off_x)
                  200081c3    00000001     (.common:accel_off_y)
                  200081c4    00000001     (.common:accel_off_z)

.data      0    200081c8    00000b49     UNINITIALIZED
                  200081c8    00000400     bmi160.obj (.data:v_fifo_data_u8)
                  200085c8    00000100     main_pem4f.oem4f (.data:ti_sysbios_knl_Task_Module_State_0_readyQ__A)
                  200086c8    0000009c     drivers_MSP432P401R.aem4f : PowerMSP432.oem4f (.data:PowerMSP432_perfLevels)
                  20008764    00000098     main_pem4f.oem4f (.data:ti_sysbios_utils_Load_Module__state__V)
                  200087fc    00000080     main_pem4f.oem4f (.data:ti_sysbios_knl_Swi_Module_State_0_readyQ__A)
                  2000887c    00000068     main_pem4f.oem4f (.data:ti_uia_loggers_LoggerStopMode_Object__table__V)
                  200088e4    00000050     main_pem4f.oem4f (.data:ti_sysbios_knl_Task_Object__table__V)
                  20008934    0000004c     main_pem4f.oem4f (.data:ti_sysbios_family_arm_msp432_Timer_Object__table__V)
                  20008980    00000044     main_pem4f.oem4f (.data:ti_sysbios_knl_Task_Module__state__V)
                  200089c4    00000038     main_pem4f.oem4f (.data:ti_sysbios_gates_GateMutex_Object__table__V)
                  200089fc    00000034     main_pem4f.oem4f (.data:ti_sysbios_family_arm_m3_Hwi_Module__state__V)
                  20008a30    00000030     msp432p4xx_driverlib.lib : gpio.o (.data:GPIO_PORT_TO_BASE)
                  20008a60    00000030     main_pem4f.oem4f (.data:ti_sysbios_family_arm_m3_Hwi_Object__table__V)
                  20008a90    00000030     main_pem4f.oem4f (.data:ti_sysbios_family_arm_m3_Timer_Object__table__V)
                  20008ac0    00000030     main_pem4f.oem4f (.data:ti_sysbios_knl_Swi_Object__table__V)
                  20008af0    0000002c     main_pem4f.oem4f (.data:ti_sysbios_knl_Clock_Module__state__V)
                  20008b1c    00000028     drivers_MSP432P401R.aem4f : PowerMSP432.oem4f (.data:PowerMSP432_module)
                  20008b44    00000024     main_pem4f.oem4f (.data:ti_sysbios_BIOS_Module__state__V)
                  20008b68    00000020     main_pem4f.oem4f (.data:ti_sysbios_family_arm_msp432_Timer_Module_State_0_device__A)
                  20008b88    0000001c     main_pem4f.oem4f (.data:ti_sysbios_knl_Swi_Module__state__V)
                  20008ba4    0000001c     main_pem4f.oem4f (.data:ti_sysbios_utils_Load_Module_State_0_taskEnv__A)
                  20008bc0    00000018     main_pem4f.oem4f (.data:ti_sysbios_heaps_HeapMem_Object__table__V)
                  20008bd8    00000010     MSP_EXP432P401R.obj (.data:gpioPinConfigs)
                  20008be8    00000010     main_pem4f.oem4f (.data:ti_sysbios_family_arm_msp432_Timer_Module_State_0_handles__A)
                  20008bf8    0000000c     rtsv7M4_T_le_v4SPD16_eabi.lib : exit.obj (.data:$O1$$)
                  20008c04    0000000c     main_pem4f.oem4f (.data:ti_sysbios_family_arm_m3_Timer_Module__state__V)
                  20008c10    0000000c     main_pem4f.oem4f (.data:ti_sysbios_family_arm_msp432_ClockFreqs_Module__state__V)
                  20008c1c    0000000c     main_pem4f.oem4f (.data:ti_sysbios_family_arm_msp432_Timer_Module__state__V)
                  20008c28    0000000c     main_pem4f.oem4f (.data:ti_sysbios_knl_Task_Module__root__V)
                  20008c34    0000000c     main_pem4f.oem4f (.data:ti_uia_runtime_QueueDescriptor_Module__state__V)
                  20008c40    0000000c     main_pem4f.oem4f (.data:xdc_runtime_SysMin_Module__state__V)
                  20008c4c    00000008     rtsv7M4_T_le_v4SPD16_eabi.lib : _lock.obj (.data:$O1$$)
                  20008c54    00000008     bmi160.obj (.data)
                  20008c5c    00000008     MSP_EXP432P401R.obj (.data:gpioCallbackFunctions)
                  20008c64    00000008     ti.uia.runtime.aem4f : QueueDescriptor.oem4f (.data)
                  20008c6c    00000008     main_pem4f.oem4f (.data:ti_sysbios_family_arm_m3_Hwi_Module__root__V)
                  20008c74    00000008     main_pem4f.oem4f (.data:ti_sysbios_gates_GateHwi_Module__root__V)
                  20008c7c    00000008     main_pem4f.oem4f (.data:ti_sysbios_gates_GateMutexPri_Module__root__V)
                  20008c84    00000008     main_pem4f.oem4f (.data:ti_sysbios_gates_GateMutex_Module__root__V)
                  20008c8c    00000008     main_pem4f.oem4f (.data:ti_sysbios_heaps_HeapMem_Module__root__V)
                  20008c94    00000008     main_pem4f.oem4f (.data:ti_sysbios_knl_Clock_Module__root__V)
                  20008c9c    00000008     main_pem4f.oem4f (.data:ti_sysbios_knl_Mailbox_Module__root__V)
                  20008ca4    00000008     main_pem4f.oem4f (.data:ti_sysbios_knl_Queue_Module__root__V)
                  20008cac    00000008     main_pem4f.oem4f (.data:ti_sysbios_knl_Semaphore_Module__root__V)
                  20008cb4    00000008     main_pem4f.oem4f (.data:ti_uia_loggers_LoggerStopMode_Module__root__V)
                  20008cbc    00000008     main_pem4f.oem4f (.data:xdc_runtime_Registry_Module__state__V)
                  20008cc4    00000008     main_pem4f.oem4f (.data:xdc_runtime_Startup_Module__state__V)
                  20008ccc    00000008     main_pem4f.oem4f (.data:xdc_runtime_System_Module_State_0_atexitHandlers__A)
                  20008cd4    00000008     main_pem4f.oem4f (.data:xdc_runtime_System_Module__state__V)
                  20008cdc    00000004     drivers_MSP432P401R.aem4f : I2C.oem4f (.data)
                  20008ce0    00000004                               : UART.oem4f (.data)
                  20008ce4    00000004     rtsv7M4_T_le_v4SPD16_eabi.lib : errno.obj (.data)
                  20008ce8    00000004                                   : stkdepth_vars.obj (.data)
                  20008cec    00000004     main_pem4f.oem4f (.data:ti_sysbios_family_arm_m3_Hwi_Module_State_0_excContext__A)
                  20008cf0    00000004     main_pem4f.oem4f (.data:ti_sysbios_family_arm_m3_Hwi_Module_State_0_excStack__A)
                  20008cf4    00000004     main_pem4f.oem4f (.data:ti_sysbios_family_arm_m3_TimestampProvider_Module__state__V)
                  20008cf8    00000004     main_pem4f.oem4f (.data:ti_sysbios_gates_GateHwi_Object__table__V)
                  20008cfc    00000004     main_pem4f.oem4f (.data:ti_sysbios_knl_Task_Module_State_0_idleTask__A)
                  20008d00    00000004     main_pem4f.oem4f (.data:ti_sysbios_utils_Load_Module_State_0_runningTask__A)
                  20008d04    00000004     main_pem4f.oem4f (.data:ti_sysbios_utils_Load_Module_State_0_taskStartTime__A)
                  20008d08    00000004     main_pem4f.oem4f (.data:xdc_runtime_Memory_Module__state__V)
                  20008d0c    00000002     main_pem4f.oem4f (.data:ti_sysbios_family_arm_m3_Hwi_Module_State_0_excActive__A)
                  20008d0e    00000002     main_pem4f.oem4f (.data:xdc_runtime_Error_Module__state__V)
                  20008d10    00000001     drivers_MSP432P401R.aem4f : GPIOMSP432.oem4f (.data)

.stack     0    2000fd00    00000300     UNINITIALIZED
                  2000fd00    00000300     --HOLE--

.bootVecs 
*          0    00000000    00000008     DSECT
                  00000000    00000008     boot.aem4f : boot.oem4f (.bootVecs)

xdc.meta   0    00000000    000000e2     COPY SECTION
                  00000000    000000e2     main_pem4f.oem4f (xdc.meta)

MODULE SUMMARY

       Module                     code    ro data   rw data
       ------                     ----    -------   -------
    .\
       main.obj                   304     4         15557  
       MSP_EXP432P401R.obj        72      296       416    
    +--+--------------------------+-------+---------+---------+
       Total:                     376     300       15973  
                                                           
    .\app_files\driver\
       bmi160.obj                 9562    0         3680   
       bmi160_support.obj         2226    0         32     
       sensors.obj                804     165       0      
    +--+--------------------------+-------+---------+---------+
       Total:                     12592   165       3712   
                                                           
    .\app_files\estimator\
       supporting_functions.obj   3200    64        0      
       kalman.obj                 688     60        0      
    +--+--------------------------+-------+---------+---------+
       Total:                     3888    124       0      
                                                           
    C:\Users\Carmen\workspace_v7\Agents-AOCS\Debug\configPkg\package\cfg\
       main_pem4f.oem4f           3860    8593      15724  
    +--+--------------------------+-------+---------+---------+
       Total:                     3860    8593      15724  
                                                           
    ../MAES_lib.lib
       Agent_Platform.obj         2364    0         0      
       Agent_Msg.obj              1820    0         0      
       Behaviour.obj              236     206       0      
       Agent.obj                  136     0         0      
       User_Cond.obj              72      63        0      
    +--+--------------------------+-------+---------+---------+
       Total:                     4628    269       0      
                                                           
    ../dsplib-msp432.lib
       arm_mat_inverse_f32.obj    684     0         0      
       arm_mat_mult_f32.obj       232     0         0      
       arm_mat_add_f32.obj        148     0         0      
       arm_mat_sub_f32.obj        148     0         0      
       arm_mat_scale_f32.obj      120     0         0      
       arm_mat_trans_f32.obj      114     0         0      
       arm_mat_init_f32.obj       8       0         0      
    +--+--------------------------+-------+---------+---------+
       Total:                     1454    0         0      
                                                           
    C:/ti/tirtos_msp43x_2_20_00_06/products/msp432_driverlib_3_21_00_05/driverlib/MSP432P4xx/ccs/msp432p4xx_driverlib.lib
       pcm.o                      1214    0         0      
       gpio.o                     384     0         48     
       i2c.o                      330     0         0      
       uart.o                     328     0         0      
       cs.o                       260     0         0      
       flash.o                    156     0         0      
       rtc_c.o                    72      0         0      
       wdt_a.o                    44      0         0      
       cpu.o                      28      0         0      
    +--+--------------------------+-------+---------+---------+
       Total:                     2816    0         48     
                                                           
    C:/ti/tirtos_msp43x_2_20_00_06/products/tidrivers_msp43x_2_20_00_08/packages/ti/drivers/lib/drivers_MSP432P401R.aem4f
       UARTMSP432.oem4f           2630    81        0      
       I2CMSP432.oem4f            1378    32        0      
       PowerMSP432.oem4f          1212    0         196    
       GPIOMSP432.oem4f           660     12        49     
       RingBuf.oem4f              184     0         0      
       UART.oem4f                 138     36        4      
       I2C.oem4f                  130     16        4      
       List.oem4f                 72      0         0      
    +--+--------------------------+-------+---------+---------+
       Total:                     6404    177       253    
                                                           
    C:/ti/tirtos_msp43x_2_20_00_06/products/tidrivers_msp43x_2_20_00_08/packages/ti/drivers/lib/power_tirtos_MSP432P401R.aem4f
       PowerMSP432_tirtos.oem4f   106     0         0      
    +--+--------------------------+-------+---------+---------+
       Total:                     106     0         0      
                                                           
    C:/ti/tirtos_msp43x_2_20_00_06/products/tidrivers_msp43x_2_20_00_08/packages/ti/drivers/ports/lib/tirtosport.aem4f
       ClockP_tirtos.oem4f        148     0         0      
       SemaphoreP_tirtos.oem4f    146     0         0      
       HwiP_tirtos.oem4f          138     0         0      
    +--+--------------------------+-------+---------+---------+
       Total:                     432     0         0      
                                                           
    C:\Users\Carmen\workspace_v7\Agents-AOCS\src\sysbios\sysbios.aem4f
       BIOS.obj                   18548   0         0      
       m3_Hwi_asm.obj             306     0         0      
       m3_TaskSupport_asm.obj     180     0         0      
       m3_Hwi_asm_switch.obj      118     0         0      
    +--+--------------------------+-------+---------+---------+
       Total:                     19152   0         0      
                                                           
    C:\ti\ccsv7\tools\compiler\ti-cgt-arm_16.9.1.LTS\lib\rtsv7M4_T_le_v4SPD16_eabi.lib
       _printfi.obj               4414    0         0      
       e_powf.obj                 1416    24        0      
       trgdrv.obj                 804     0         8      
       typeinfo_.obj              188     356       4      
       ull_div_t2.obj             500     0         0      
       fd_add_t2.obj              438     0         0      
       trgmsg.obj                 104     0         288    
       e_sqrt.obj                 368     0         0      
       fd_div_t2.obj              310     0         0      
       fd_cmp_t2.obj              268     0         0      
       ctype.obj                  0       257       0      
       fd_mul_t2.obj              252     0         0      
       s_scalbn.obj               252     0         0      
       s_scalbnf.obj              212     0         0      
       memcpy_t2.obj              156     0         0      
       snprintf.obj               148     0         0      
       memset_t2.obj              122     0         0      
       fd_tos_t2.obj              110     0         0      
       copy_decompress_lzss.obj   104     0         0      
       s_frexp.obj                100     0         0      
       exit.obj                   84      0         12     
       ltoa.obj                   84      0         0      
       atoi.obj                   76      0         0      
       cpy_tbl.obj                76      0         0      
       fd_toi_t2.obj              72      0         0      
       u_divt2.obj                64      0         0      
       fs_tod_t2.obj              56      0         0      
       i_tofd_t2.obj              46      0         0      
       e_sqrtf.obj                40      0         0      
       _lock.obj                  20      0         8      
       memccpy.obj                28      0         0      
       args_main.obj              24      0         0      
       strcmp.obj                 24      0         0      
       strchr.obj                 22      0         0      
       s_copysign.obj             20      0         0      
       strcpy.obj                 20      0         0      
       strlen.obj                 20      0         0      
       s_copysignf.obj            18      0         0      
       copy_decompress_none.obj   14      0         0      
       copy_zero_init.obj         12      0         0      
       delete.obj                 8       0         0      
       pure_virt.obj              6       0         0      
       errno.obj                  0       0         4      
       error.obj                  4       0         0      
       stkdepth_vars.obj          0       0         4      
       i_div0.obj                 2       0         0      
    +--+--------------------------+-------+---------+---------+
       Total:                     11106   637       328    
                                                           
    C:\ti\tirtos_msp43x_2_20_00_06\products\bios_6_46_00_23\packages\ti\targets\arm\rtsarm\lib\auto_init.aem4f
       auto_init.oem4f            160     0         0      
    +--+--------------------------+-------+---------+---------+
       Total:                     160     0         0      
                                                           
    C:\ti\tirtos_msp43x_2_20_00_06\products\bios_6_46_00_23\packages\ti\targets\arm\rtsarm\lib\boot.aem4f
       boot.oem4f                 88      0         0      
    +--+--------------------------+-------+---------+---------+
       Total:                     88      0         0      
                                                           
    C:\ti\tirtos_msp43x_2_20_00_06\products\bios_6_46_00_23\packages\ti\targets\arm\rtsarm\lib\ti.targets.arm.rtsarm.aem4f
       System.oem4f               1255    0         0      
       Text.oem4f                 672     0         0      
       Error.oem4f                524     0         0      
       Core-mem.oem4f             358     0         0      
       Startup.oem4f              340     0         0      
       SysMin.oem4f               248     0         0      
       Core-smem.oem4f            204     0         0      
       Memory.oem4f               176     0         0      
       Assert.oem4f               84      0         0      
       Core-params.oem4f          70      0         0      
       Core-label.oem4f           52      0         0      
       Registry.oem4f             32      0         0      
       Gate.oem4f                 28      0         0      
    +--+--------------------------+-------+---------+---------+
       Total:                     4043    0         0      
                                                           
    C:\ti\tirtos_msp43x_2_20_00_06\products\uia_2_00_06_52\packages\ti\uia\loggers\lib\release\ti.uia.loggers.aem4f
       LoggerStopMode.oem4f       552     0         0      
    +--+--------------------------+-------+---------+---------+
       Total:                     552     0         0      
                                                           
    C:\ti\tirtos_msp43x_2_20_00_06\products\uia_2_00_06_52\packages\ti\uia\runtime\lib\release\ti.uia.runtime.aem4f
       QueueDescriptor.oem4f      116     0         8      
    +--+--------------------------+-------+---------+---------+
       Total:                     116     0         8      
                                                           
       Stack:                     0       0         768    
       Linker Generated:          0       815       0      
    +--+--------------------------+-------+---------+---------+
       Grand Total:               71773   11080     36814  


LINKER GENERATED COPY TABLES

__TI_cinit_table @ 00014490 records: 3, size/record: 8, table size: 24
	.data: load addr=00014178, load size=000002fb bytes, run addr=200081c8, run size=00000b49 bytes, compression=lzss
	.bss: load addr=00014480, load size=00000008 bytes, run addr=20000180, run size=00008045 bytes, compression=zero_init
	.vecs: load addr=00014488, load size=00000008 bytes, run addr=20000000, run size=00000140 bytes, compression=zero_init


LINKER GENERATED HANDLER TABLE

__TI_handler_table @ 00014474 records: 3, size/record: 4, table size: 12
	index: 0, handler: __TI_decompress_lzss
	index: 1, handler: __TI_decompress_none
	index: 2, handler: __TI_zero_init


GLOBAL SYMBOLS: SORTED ALPHABETICALLY BY Name 

address   name                                                                         
-------   ----                                                                         
20002180  AP                                                                           
0000e96d  C$$EXIT                                                                      
0000d4eb  C$$IO$$                                                                      
0001169b  CPU_cpsid                                                                    
000116a7  CPU_cpsie                                                                    
0000584d  CPU_wfi                                                                      
00009de5  CS_initClockSignal                                                           
000107ad  CS_setDCOCenteredFrequency                                                   
00011891  ClockP_Params_init                                                           
0000e5ad  ClockP_create                                                                
00011209  ClockP_delete                                                                
000117a9  ClockP_getSystemTicks                                                        
00011419  ClockP_start                                                                 
00011419  ClockP_startFromISR                                                          
00011841  ClockP_stop                                                                  
00011841  ClockP_stopFromISR                                                           
20006f78  Eg                                                                           
20007f54  EgData                                                                       
20007ef8  F                                                                            
20007ab8  FData                                                                        
0000f549  FlashCtl_disableReadBuffering                                                
0000fb5d  FlashCtl_enableReadBuffering                                                 
000105a9  FlashCtl_setWaitState                                                        
00013c90  GPIOMSP432_config                                                            
00010f99  GPIO_clearInterruptFlag                                                      
0000ff1d  GPIO_getEnabledInterruptStatus                                               
00011485  GPIO_getInterruptStatus                                                      
0000e871  GPIO_hwiIntFxn                                                               
0000e2c9  GPIO_init                                                                    
00010b1d  GPIO_interruptEdgeSelect                                                     
00010371  GPIO_setAsInputPin                                                           
0000ff4d  GPIO_setAsInputPinWithPullDownResistor                                       
0000ff7d  GPIO_setAsInputPinWithPullUpResistor                                         
000107d1  GPIO_setAsOutputPin                                                          
0000e8c5  GPIO_setCallback                                                             
00007b31  GPIO_setConfig                                                               
000112d5  GPIO_setDriveStrengthHigh                                                    
00010fb1  GPIO_setDriveStrengthLow                                                     
000112e9  GPIO_setOutputHighOnPin                                                      
00010fc9  GPIO_setOutputLowOnPin                                                       
0000ec1d  GPIO_write                                                                   
00004457  HOSTclock                                                                    
0000441f  HOSTclose                                                                    
000043e1  HOSTgetenv                                                                   
00004385  HOSTlseek                                                                    
00004333  HOSTopen                                                                     
000042e7  HOSTread                                                                     
00004289  HOSTrename                                                                   
0000424f  HOSTtime                                                                     
00004201  HOSTtime64                                                                   
000041c9  HOSTunlink                                                                   
0000417d  HOSTwrite                                                                    
00011619  HwiP_Params_init                                                             
0000dfc1  HwiP_create                                                                  
0001121f  HwiP_delete                                                                  
00005c4d  HwiP_disable                                                                 
00011911  HwiP_restore                                                                 
0000bcdd  I2CMSP432_cancel                                                             
0000d591  I2CMSP432_close                                                              
0000fee3  I2CMSP432_control                                                            
000139a4  I2CMSP432_fxnTable                                                           
00008735  I2CMSP432_hwiIntFxn                                                          
0001184b  I2CMSP432_init                                                               
00007161  I2CMSP432_open                                                               
0000c0d1  I2CMSP432_transfer                                                           
00011495  I2C_Params_init                                                              
00011627  I2C_clearInterruptFlag                                                       
00013ba4  I2C_config                                                                   
00013d4c  I2C_defaultParams                                                            
00011635  I2C_disableInterrupt                                                         
000116b3  I2C_disableModule                                                            
00011899  I2C_enableInterrupt                                                          
000116bf  I2C_enableModule                                                             
00010f43  I2C_getEnabledInterruptStatus                                                
000118f1  I2C_getInterruptStatus                                                       
0000f8f9  I2C_init                                                                     
0000f749  I2C_initMaster                                                               
00010fe1  I2C_masterIsStartSent                                                        
000118f7  I2C_masterReceiveMultiByteNext                                               
000114a5  I2C_masterReceiveMultiByteStop                                               
000114b5  I2C_masterReceiveStart                                                       
0000f589  I2C_masterSendMultiByteFinish                                                
000107f5  I2C_masterSendMultiByteNext                                                  
000114c5  I2C_masterSendStart                                                          
0000ffad  I2C_open                                                                     
00011643  I2C_setMode                                                                  
0000788d  I2C_setSlaveAddress                                                          
00011855  I2C_transfer                                                                 
200080d8  K                                                                            
200032b0  KALMANSTACK                                                                  
20007ba8  KData                                                                        
20008188  Kalman_AID                                                                   
20007eb0  Kalman_Agent                                                                 
00007eed  List_head                                                                    
0000802d  List_next                                                                    
00010739  List_put                                                                     
00010f29  List_remove                                                                  
0000e2c9  MSP_EXP432P401R_initGPIO                                                     
0000f29d  MSP_EXP432P401R_initGeneral                                                  
00010d81  MSP_EXP432P401R_initI2C                                                      
0001039d  MSP_EXP432P401R_initUART                                                     
200080e0  Omega                                                                        
20007da8  OmegaData                                                                    
200080e8  P                                                                            
00010d9d  PCM_enableRudeMode                                                           
000103c9  PCM_getCoreVoltageLevel                                                      
00010529  PCM_getPowerMode                                                             
000116cd  PCM_getPowerState                                                            
000105d1  PCM_gotoLPM0                                                                 
0000c8b9  PCM_gotoLPM3                                                                 
000114d5  PCM_gotoLPM4                                                                 
000118a1  PCM_setPowerMode                                                             
000118a9  PCM_setPowerState                                                            
0000ec6d  PCM_shutdownDevice                                                           
20007180  PData                                                                        
200080f0  Phi                                                                          
20007310  PhiData                                                                      
00013cfc  PowerMSP432_config                                                           
00010b3d  PowerMSP432_getFreqs                                                         
000084f5  PowerMSP432_getNumPerfLevels                                                 
0000117f  PowerMSP432_initPolicy                                                       
20008b1c  PowerMSP432_module                                                           
200086c8  PowerMSP432_perfLevels                                                       
0000f7c5  PowerMSP432_sleepPolicy                                                      
000103f5  PowerMSP432_updateFreqs                                                      
000116d9  Power_getConstraintMask                                                      
000116e5  Power_getPerformanceLevel                                                    
000112fd  Power_idleFunc                                                               
0000f29d  Power_init                                                                   
00010db9  Power_registerNotify                                                         
00010421  Power_releaseConstraint                                                      
0001044d  Power_setConstraint                                                          
00004cd5  Power_sleep                                                                  
00010b5d  Power_unregisterNotify                                                       
200080f8  Q                                                                            
200074a0  QData                                                                        
20008100  R                                                                            
20007c98  RData                                                                        
00010819  RTC_C_holdClock                                                              
0001083d  RTC_C_startClock                                                             
0001142b  RingBuf_construct                                                            
0000f5c9  RingBuf_get                                                                  
00010b7d  RingBuf_peek                                                                 
0000f1c9  RingBuf_put                                                                  
20005300  SENSORSTACK                                                                  
0000003c  SHT$$INIT_ARRAY$$Base                                                        
00000040  SHT$$INIT_ARRAY$$Limit                                                       
000118b1  SemaphoreP_Params_init                                                       
0000e607  SemaphoreP_create                                                            
00011235  SemaphoreP_delete                                                            
0001143d  SemaphoreP_pend                                                              
0001185f  SemaphoreP_post                                                              
0001185f  SemaphoreP_postFromClock                                                     
0001185f  SemaphoreP_postFromISR                                                       
2000818c  Sensor_AID                                                                   
20007ed4  Sensor_Agent                                                                 
0000c275  UARTMSP432_close                                                             
0000b201  UARTMSP432_control                                                           
00013698  UARTMSP432_fxnTable                                                          
0000f4c5  UARTMSP432_hwiIntFxn                                                         
000116f1  UARTMSP432_init                                                              
00004f39  UARTMSP432_open                                                              
0000f609  UARTMSP432_read                                                              
0000faf1  UARTMSP432_readCancel                                                        
0000abdd  UARTMSP432_readPolling                                                       
0000c935  UARTMSP432_write                                                             
0000ebc9  UARTMSP432_writeCancel                                                       
0000d6c3  UARTMSP432_writePolling                                                      
20005b00  UARTSTACK                                                                    
20008190  UART_AID                                                                     
20007f30  UART_Agent                                                                   
00010ff9  UART_Params_init                                                             
00011651  UART_clearInterruptFlag                                                      
0001375c  UART_config                                                                  
00013780  UART_defaultParams                                                           
00010861  UART_disableInterrupt                                                        
000116fd  UART_disableModule                                                           
0001124b  UART_enableInterrupt                                                         
00011709  UART_enableModule                                                            
000118fd  UART_getInterruptStatus                                                      
0000f931  UART_init                                                                    
0000b961  UART_initModule                                                              
0000ffdd  UART_open                                                                    
00011903  UART_queryStatusFlags                                                        
00010885  UART_receiveData                                                             
000108a9  UART_transmitData                                                            
00011869  UART_write                                                                   
20008c54  V_bmm150_maual_auto_condition_u8                                             
20008c58  V_fifo_time_U32                                                              
4000480c  WDTCTL_SYM                                                                   
00011011  WDT_A_holdTimer                                                              
00011311  WDT_A_startTimer                                                             
20008108  Xi                                                                           
20007e28  XiData                                                                       
000108cd  _Z6kalmanjj                                                                  
00010dd5  _Z6sensorjj                                                                  
00006ca9  _Z7uartFxnjj                                                                 
0000a6b9  _ZN10__cxxabiv116__enum_type_infoD0Ev                                        
0000a6b7  _ZN10__cxxabiv116__enum_type_infoD1Ev                                        
0000a6b7  _ZN10__cxxabiv116__enum_type_infoD2Ev                                        
0000a6af  _ZN10__cxxabiv117__array_type_infoD0Ev                                       
0000a6ad  _ZN10__cxxabiv117__array_type_infoD1Ev                                       
0000a6ad  _ZN10__cxxabiv117__array_type_infoD2Ev                                       
0000a6a5  _ZN10__cxxabiv117__class_type_infoD0Ev                                       
0000a6a3  _ZN10__cxxabiv117__class_type_infoD1Ev                                       
0000a6a3  _ZN10__cxxabiv117__class_type_infoD2Ev                                       
0000a69b  _ZN10__cxxabiv117__pbase_type_infoD0Ev                                       
0000a699  _ZN10__cxxabiv117__pbase_type_infoD1Ev                                       
0000a699  _ZN10__cxxabiv117__pbase_type_infoD2Ev                                       
0000a691  _ZN10__cxxabiv119__pointer_type_infoD0Ev                                     
0000a68f  _ZN10__cxxabiv119__pointer_type_infoD1Ev                                     
0000a68f  _ZN10__cxxabiv119__pointer_type_infoD2Ev                                     
0000a687  _ZN10__cxxabiv120__function_type_infoD0Ev                                    
0000a685  _ZN10__cxxabiv120__function_type_infoD1Ev                                    
0000a685  _ZN10__cxxabiv120__function_type_infoD2Ev                                    
0000a67d  _ZN10__cxxabiv120__si_class_type_infoD0Ev                                    
0000a67b  _ZN10__cxxabiv120__si_class_type_infoD1Ev                                    
0000a67b  _ZN10__cxxabiv120__si_class_type_infoD2Ev                                    
0000a673  _ZN10__cxxabiv121__vmi_class_type_infoD0Ev                                   
0000a671  _ZN10__cxxabiv121__vmi_class_type_infoD1Ev                                   
0000a671  _ZN10__cxxabiv121__vmi_class_type_infoD2Ev                                   
0000a669  _ZN10__cxxabiv123__fundamental_type_infoD0Ev                                 
0000a667  _ZN10__cxxabiv123__fundamental_type_infoD1Ev                                 
0000a667  _ZN10__cxxabiv123__fundamental_type_infoD2Ev                                 
0000a65f  _ZN10__cxxabiv129__pointer_to_member_type_infoD0Ev                           
0000a65d  _ZN10__cxxabiv129__pointer_to_member_type_infoD1Ev                           
0000a65d  _ZN10__cxxabiv129__pointer_to_member_type_infoD2Ev                           
0000a481  _ZN13kalman_filter5setupEv                                                   
00006421  _ZN13kalman_filter6actionEv                                                  
00009295  _ZN14sensor_control5setupEv                                                  
0000cb95  _ZN14sensor_control6actionEv                                                 
00006e45  _ZN20supporting_functions11getRotationEv                                     
0000a9b9  _ZN20supporting_functions11normalizingEv                                     
00005a51  _ZN20supporting_functions14updateJacobianEv                                  
00008a79  _ZN20supporting_functions16get_measurementsEv                                
000032b1  _ZN20supporting_functions4initEv                                             
0000938d  _ZN20supporting_functions7updateQEv                                          
0000b48d  _ZN20supporting_functions7updateREv                                          
0000ac8d  _ZN20supporting_functions7updatefEv                                          
0000a221  _ZN20supporting_functions9updatePhiEv                                        
0000f001  _ZN4MAES13USER_DEF_COND11resume_condEv                                       
0000f00d  _ZN4MAES13USER_DEF_COND12restart_condEv                                      
0000efe9  _ZN4MAES13USER_DEF_COND12suspend_condEv                                      
0000efd1  _ZN4MAES13USER_DEF_COND13register_condEv                                     
0000efdd  _ZN4MAES13USER_DEF_COND15deregister_condEv                                   
0000eff5  _ZN4MAES13USER_DEF_COND9kill_condEv                                          
00011029  _ZN4MAES13USER_DEF_CONDC1Ev                                                  
00001365  _ZN4MAES14Agent_Platform10agent_initERNS_5AgentEPFvjjE                       
000013c3  _ZN4MAES14Agent_Platform10agent_initERNS_5AgentEPFvjjEjj                     
0000146b  _ZN4MAES14Agent_Platform10agent_waitEj                                       
0000167d  _ZN4MAES14Agent_Platform10kill_agentEP26ti_sysbios_knl_Task_Object           
00001479  _ZN4MAES14Agent_Platform11agent_yieldEv                                      
0000142b  _ZN4MAES14Agent_Platform12agent_searchEP26ti_sysbios_knl_Task_Object         
0000170f  _ZN4MAES14Agent_Platform12resume_agentEP26ti_sysbios_knl_Task_Object         
000016d7  _ZN4MAES14Agent_Platform13suspend_agentEP26ti_sysbios_knl_Task_Object        
00001529  _ZN4MAES14Agent_Platform14register_agentEP26ti_sysbios_knl_Task_Object       
000015c9  _ZN4MAES14Agent_Platform16deregister_agentEP26ti_sysbios_knl_Task_Object     
00001483  _ZN4MAES14Agent_Platform17get_running_agentEv                                
000014f7  _ZN4MAES14Agent_Platform18get_AP_descriptionEv                               
000014d7  _ZN4MAES14Agent_Platform21get_Agent_descriptionEP26ti_sysbios_knl_Task_Object
000012af  _ZN4MAES14Agent_Platform4bootEv                                              
0000174f  _ZN4MAES14Agent_Platform7restartEP26ti_sysbios_knl_Task_Object               
0000148d  _ZN4MAES14Agent_Platform9get_stateEP26ti_sysbios_knl_Task_Object             
000011c1  _ZN4MAES14Agent_PlatformC1EPc                                                
00001237  _ZN4MAES14Agent_PlatformC1EPcPNS_13USER_DEF_CONDE                            
000011c1  _ZN4MAES14Agent_PlatformC2EPc                                                
00001237  _ZN4MAES14Agent_PlatformC2EPcPNS_13USER_DEF_CONDE                            
00009a29  _ZN4MAES15CyclicBehaviour4doneEv                                             
00009a15  _ZN4MAES15CyclicBehaviourC1Ev                                                
00009a15  _ZN4MAES15CyclicBehaviourC2Ev                                                
00009a09  _ZN4MAES16OneShotBehaviour4doneEv                                            
000099f5  _ZN4MAES16OneShotBehaviourC1Ev                                               
000099f5  _ZN4MAES16OneShotBehaviourC2Ev                                               
0000998d  _ZN4MAES17Generic_Behaviour16failure_recoveryEv                              
00009977  _ZN4MAES17Generic_Behaviour17failure_detectionEv                             
00009983  _ZN4MAES17Generic_Behaviour22failure_identificationEv                        
0000996b  _ZN4MAES17Generic_Behaviour4doneEv                                           
00009997  _ZN4MAES17Generic_Behaviour5setupEv                                          
000099a1  _ZN4MAES17Generic_Behaviour7executeEv                                        
00009955  _ZN4MAES17Generic_BehaviourC1Ev                                              
00009955  _ZN4MAES17Generic_BehaviourC2Ev                                              
000017e1  _ZN4MAES42_GLOBAL__N__18_Agent_Platform_cpp_425cc0708AMS_taskEjj             
0000c36b  _ZN4MAES5Agent3AIDEv                                                         
0000c301  _ZN4MAES5AgentC1EPciS1_i                                                     
0000c379  _ZN4MAES5AgentC1Ev                                                           
0000c301  _ZN4MAES5AgentC2EPciS1_i                                                     
0000c379  _ZN4MAES5AgentC2Ev                                                           
0000250b  _ZN4MAES9Agent_Msg10get_senderEv                                             
000028c5  _ZN4MAES9Agent_Msg11get_mailboxEP26ti_sysbios_knl_Task_Object                
000021fd  _ZN4MAES9Agent_Msg12add_receiverEP26ti_sysbios_knl_Task_Object               
000024ef  _ZN4MAES9Agent_Msg12get_msg_typeEv                                           
00002891  _ZN4MAES9Agent_Msg12isRegisteredEP26ti_sysbios_knl_Task_Object               
000022ef  _ZN4MAES9Agent_Msg12refresh_listEv                                           
00002527  _ZN4MAES9Agent_Msg12registrationEP26ti_sysbios_knl_Task_Object               
000024b7  _ZN4MAES9Agent_Msg12set_msg_typeENS_8MSG_TYPEE                               
000025bd  _ZN4MAES9Agent_Msg14deregistrationEP26ti_sysbios_knl_Task_Object             
000024fd  _ZN4MAES9Agent_Msg15get_msg_contentEv                                        
00002247  _ZN4MAES9Agent_Msg15remove_receiverEP26ti_sysbios_knl_Task_Object            
000024cd  _ZN4MAES9Agent_Msg15set_msg_contentEPc                                       
00002519  _ZN4MAES9Agent_Msg16get_target_agentEv                                       
000022c3  _ZN4MAES9Agent_Msg18clear_all_receiverEv                                     
0000278b  _ZN4MAES9Agent_Msg4killERP26ti_sysbios_knl_Task_Object                       
00002385  _ZN4MAES9Agent_Msg4sendEP26ti_sysbios_knl_Task_Objecti                       
00002469  _ZN4MAES9Agent_Msg4sendEv                                                    
000026e9  _ZN4MAES9Agent_Msg6resumeEP26ti_sysbios_knl_Task_Object                      
000024df  _ZN4MAES9Agent_Msg7get_msgEv                                                 
0000235d  _ZN4MAES9Agent_Msg7receiveEj                                                 
00002837  _ZN4MAES9Agent_Msg7restartEv                                                 
00002653  _ZN4MAES9Agent_Msg7suspendEP26ti_sysbios_knl_Task_Object                     
000021dd  _ZN4MAES9Agent_MsgC1Ev                                                       
000021dd  _ZN4MAES9Agent_MsgC2Ev                                                       
0000a61f  _ZNKSt9type_info4nameEv                                                      
0000a64f  _ZNKSt9type_info6beforeERKS_                                                 
0000a639  _ZNKSt9type_infoeqERKS_                                                      
0000a623  _ZNKSt9type_infoneERKS_                                                      
0000a617  _ZNSt9type_infoD0Ev                                                          
0000a615  _ZNSt9type_infoD1Ev                                                          
0000a615  _ZNSt9type_infoD2Ev                                                          
20008194  _ZSt16__dummy_typeinfo                                                       
0000a60d  _ZSt21__gen_dummy_typeinfosv                                                 
00013d98  _ZTI13kalman_filter                                                          
00013da4  _ZTI14sensor_control                                                         
00013db0  _ZTIN10__cxxabiv117__class_type_infoE                                        
00013dbc  _ZTIN10__cxxabiv117__pbase_type_infoE                                        
00013dc8  _ZTIN10__cxxabiv119__pointer_type_infoE                                      
00013dd4  _ZTIN10__cxxabiv120__si_class_type_infoE                                     
00013de0  _ZTIN10__cxxabiv123__fundamental_type_infoE                                  
00013e1c  _ZTIN4MAES13USER_DEF_CONDE                                                   
00013dec  _ZTIN4MAES15CyclicBehaviourE                                                 
00013df8  _ZTIN4MAES16OneShotBehaviourE                                                
00013e24  _ZTIN4MAES17Generic_BehaviourE                                               
00013cdc  _ZTIPKe                                                                      
00013e2c  _ZTISt9type_info                                                             
00013e34  _ZTIe                                                                        
00013cec  _ZTS13kalman_filter                                                          
00013cc9  _ZTS14sensor_control                                                         
000138a0  _ZTSN10__cxxabiv117__class_type_infoE                                        
000138c2  _ZTSN10__cxxabiv117__pbase_type_infoE                                        
00013735  _ZTSN10__cxxabiv119__pointer_type_infoE                                      
00013710  _ZTSN10__cxxabiv120__si_class_type_infoE                                     
00013670  _ZTSN10__cxxabiv123__fundamental_type_infoE                                  
00013c4c  _ZTSN4MAES13USER_DEF_CONDE                                                   
00013b59  _ZTSN4MAES15CyclicBehaviourE                                                 
00013b3f  _ZTSN4MAES16OneShotBehaviourE                                                
00013b24  _ZTSN4MAES17Generic_BehaviourE                                               
00013e69  _ZTSPKe                                                                      
00013d7c  _ZTSSt9type_info                                                             
000133fd  _ZTSe                                                                        
000138e4  _ZTV13kalman_filter                                                          
00013904  _ZTV14sensor_control                                                         
00013d0c  _ZTVN10__cxxabiv117__class_type_infoE                                        
00013d1c  _ZTVN10__cxxabiv119__pointer_type_infoE                                      
00013d2c  _ZTVN10__cxxabiv120__si_class_type_infoE                                     
00013d3c  _ZTVN10__cxxabiv123__fundamental_type_infoE                                  
00013924  _ZTVN4MAES13USER_DEF_CONDE                                                   
00013944  _ZTVN4MAES15CyclicBehaviourE                                                 
00013964  _ZTVN4MAES16OneShotBehaviourE                                                
00013984  _ZTVN4MAES17Generic_BehaviourE                                               
00013b8c  _ZZN14sensor_control5setupEvEs                                               
00013cb7  _ZZN14sensor_control5setupEvEs_0                                             
00013c79  _ZZN14sensor_control5setupEvEs_1                                             
00013ca4  _ZZN14sensor_control5setupEvEs_2                                             
00013c63  _ZZN14sensor_control5setupEvEs_3                                             
000118d1  _ZdlPv                                                                       
00000000  __ASM__                                                                      
20007898  __CIOBUF_                                                                    
0000005e  __ISA__                                                                      
00000071  __PLAT__                                                                     
20010000  __STACK_END                                                                  
00000300  __STACK_SIZE                                                                 
00000094  __TARG__                                                                     
00014490  __TI_CINIT_Base                                                              
000144a8  __TI_CINIT_Limit                                                             
00014474  __TI_Handler_Table_Base                                                      
00014480  __TI_Handler_Table_Limit                                                     
0000b34d  __TI_auto_init                                                               
20008bf8  __TI_cleanup_ptr                                                             
0000d3ed  __TI_decompress_lzss                                                         
0001165f  __TI_decompress_none                                                         
20008bfc  __TI_dtors_ptr                                                               
20008c00  __TI_enable_exit_profile_output                                              
ffffffff  __TI_pprof_out_hndl                                                          
00000885  __TI_printfi                                                                 
ffffffff  __TI_prof_data_size                                                          
ffffffff  __TI_prof_data_start                                                         
0000d4ef  __TI_readmsg                                                                 
00014178  __TI_static_base__                                                           
0000d4bd  __TI_writemsg                                                                
00011715  __TI_zero_init                                                               
000000ba  __TRDR__                                                                     
00008615  __abort_execution                                                            
0000c499  __aeabi_cdcmpeq                                                              
0000c499  __aeabi_cdcmple                                                              
0000c51f  __aeabi_cdrcmple                                                             
0000cf39  __aeabi_d2f                                                                  
0000f019  __aeabi_d2iz                                                                 
000067ab  __aeabi_dadd                                                                 
000082a1  __aeabi_ddiv                                                                 
00008e9d  __aeabi_dmul                                                                 
000067a1  __aeabi_dsub                                                                 
0000f9a1  __aeabi_f2d                                                                  
00010341  __aeabi_i2d                                                                  
000021db  __aeabi_idiv0                                                                
0000ca29  __aeabi_memclr                                                               
0000ca29  __aeabi_memclr4                                                              
0000ca29  __aeabi_memclr8                                                              
0000b5c5  __aeabi_memcpy                                                               
0000b5c5  __aeabi_memcpy4                                                              
0000b5c5  __aeabi_memcpy8                                                              
0000ca2b  __aeabi_memset                                                               
0000ca2b  __aeabi_memset4                                                              
0000ca2b  __aeabi_memset8                                                              
0000f6c9  __aeabi_uidiv                                                                
0000f6c9  __aeabi_uidivmod                                                             
00005e4d  __aeabi_uldivmod                                                             
ffffffff  __binit__                                                                    
ffffffff  __c_args__                                                                   
00011909  __cxa_pure_virtual                                                           
2000fd00  __stack                                                                      
0000b799  __sti___8_main_cpp_6977f587                                                  
00011059  _args_main                                                                   
0000e711  _c_int00                                                                     
000132fc  _ctypes_                                                                     
20008c4c  _lock                                                                        
00011347  _nop                                                                         
0001133f  _register_lock                                                               
00011339  _register_unlock                                                             
20008c50  _unlock                                                                      
0000e971  abort                                                                        
20008198  accSens                                                                      
20006300  accel_fifo                                                                   
200081c2  accel_off_x                                                                  
200081c3  accel_off_y                                                                  
200081c4  accel_off_z                                                                  
20008170  accelxyz                                                                     
0000b9f5  arm_mat_add_f32                                                              
000118b9  arm_mat_init_f32                                                             
000047b5  arm_mat_inverse_f32                                                          
00009b2d  arm_mat_mult_f32                                                             
0000caa3  arm_mat_scale_f32                                                            
0000ba89  arm_mat_sub_f32                                                              
0000cde1  arm_mat_trans_f32                                                            
0000ee01  atoi                                                                         
ffffffff  binit                                                                        
000065e9  bmi160_accel_foc_trigger_xyz                                                 
0000d019  bmi160_bmm150_mag_compensate_X                                               
0000d085  bmi160_bmm150_mag_compensate_Y                                               
0000e325  bmi160_bmm150_mag_compensate_Z                                               
0000f787  bmi160_bmm150_mag_compensate_xyz                                             
00005639  bmi160_bmm150_mag_interface_init                                             
00008b85  bmi160_bmm150_mag_set_power_mode                                             
0000d0f1  bmi160_bmm150_mag_wakeup                                                     
00001aa5  bmi160_config_running_mode                                                   
00011325  bmi160_delay_ms                                                              
000108f1  bmi160_fifo_data                                                             
0001000d  bmi160_get_accel_offset_compensation_xaxis                                   
0001003d  bmi160_get_accel_offset_compensation_yaxis                                   
0001006d  bmi160_get_accel_offset_compensation_zaxis                                   
0000fb91  bmi160_get_foc_rdy                                                           
0000d385  bmi160_get_gyro_offset_compensation_xaxis                                    
0000e025  bmi160_get_gyro_offset_compensation_yaxis                                    
0000e085  bmi160_get_gyro_offset_compensation_zaxis                                    
0000fbc5  bmi160_get_if_mode                                                           
0000fbf9  bmi160_get_mag_manual_enable                                                 
0000fc2d  bmi160_get_mag_power_mode_stat                                               
0000fc61  bmi160_get_paging_enable                                                     
0000fc95  bmi160_get_pullup_configuration                                              
0000fcc9  bmi160_get_target_page                                                       
0001009d  bmi160_i2c_burst_read                                                        
000100cd  bmi160_i2c_bus_read                                                          
0000ecbd  bmi160_i2c_bus_write                                                         
0000f649  bmi160_init                                                                  
00010915  bmi160_initialize_sensor                                                     
0000d729  bmi160_interrupt_configuration                                               
0000e661  bmi160_read_accel_xyz                                                        
00003a8d  bmi160_read_bmm150_mag_trim                                                  
000036d1  bmi160_read_fifo_header_data                                                 
0000e6b9  bmi160_read_gyro_xyz                                                         
0000c7b5  bmi160_read_mag_xyzr                                                         
000105f9  bmi160_read_reg                                                              
0000d78d  bmi160_set_accel_bw                                                          
0000e381  bmi160_set_accel_offset_enable                                               
0000d7f1  bmi160_set_accel_output_data_rate                                            
0000ce55  bmi160_set_accel_range                                                       
0000a079  bmi160_set_bmm150_mag_and_secondary_if_power_mode                            
00006235  bmi160_set_bmm150_mag_presetmode                                             
00010621  bmi160_set_command_register                                                  
0000d855  bmi160_set_fifo_accel_enable                                                 
0000d8b9  bmi160_set_fifo_gyro_enable                                                  
0000d91d  bmi160_set_fifo_header_enable                                                
0000d981  bmi160_set_fifo_mag_enable                                                   
0000d9e5  bmi160_set_fifo_stop_on_full                                                 
0000da49  bmi160_set_fifo_time_enable                                                  
00010649  bmi160_set_fifo_wm                                                           
000083d9  bmi160_set_foc_gyro_enable                                                   
0000daad  bmi160_set_gyro_bw                                                           
0000e3dd  bmi160_set_gyro_offset_enable                                                
0000cb1d  bmi160_set_gyro_output_data_rate                                             
0000db11  bmi160_set_gyro_range                                                        
0000db75  bmi160_set_gyro_sleep_state                                                  
0000dbd9  bmi160_set_gyro_sleep_trigger                                                
0000dc3d  bmi160_set_gyro_wakeup_intr                                                  
0000dca1  bmi160_set_gyro_wakeup_trigger                                               
0000e439  bmi160_set_i2c_device_addr                                                   
0000dd05  bmi160_set_if_mode                                                           
000075bd  bmi160_set_intr_enable_0                                                     
0000a845  bmi160_set_intr_enable_2                                                     
0000bd71  bmi160_set_intr_fifo_wm                                                      
0000be01  bmi160_set_intr_level                                                        
0000e0e5  bmi160_set_mag_manual_enable                                                 
0000dd69  bmi160_set_mag_output_data_rate                                              
00010671  bmi160_set_mag_read_addr                                                     
00010699  bmi160_set_mag_write_addr                                                    
000106c1  bmi160_set_mag_write_data                                                    
0000be91  bmi160_set_output_enable                                                     
0000ddcd  bmi160_set_paging_enable                                                     
0000de31  bmi160_set_pullup_configuration                                              
0000de95  bmi160_set_target_page                                                       
00010939  bmi160_write_reg                                                             
0000ee4d  copy_in                                                                      
0001134d  copysign                                                                     
0001144f  copysignf                                                                    
0001134d  copysignl                                                                    
20008ce4  errno                                                                        
0000e979  exit                                                                         
20008110  f                                                                            
20007fd8  fData                                                                        
00011041  ff_memfree                                                                   
00011041  free                                                                         
0000def9  frexp                                                                        
0000def9  frexpl                                                                       
20008118  g                                                                            
20008054  gData                                                                        
20007ff0  gateParams                                                                   
2000819c  gatekey                                                                      
20008c5c  gpioCallbackFunctions                                                        
20008bd8  gpioPinConfigs                                                               
200081a0  gyroSens                                                                     
2000666c  gyro_fifo                                                                    
20008120  gyro_meas                                                                    
20008060  gyro_measData                                                                
20008128  gyro_meas_next                                                               
2000806c  gyro_meas_nextData                                                           
200081bc  gyro_off_x                                                                   
200081be  gyro_off_y                                                                   
200081c0  gyro_off_z                                                                   
20008176  gyroxyz                                                                      
20008130  h                                                                            
20008078  hData                                                                        
200081a4  i2c                                                                          
200081a8  i2cGate                                                                      
00013d5c  i2cMSP432HWAttrs                                                             
200042b0  i2cMSP432Objects                                                             
20008044  i2cParams                                                                    
20007fbc  i2cTransaction                                                               
000100fd  i2c_routine                                                                  
00008f99  ldexp                                                                        
0000a14d  ldexpf                                                                       
00008f99  ldexpl                                                                       
0000e9c1  ltoa                                                                         
200081ac  magSens                                                                      
200069d8  mag_fifo                                                                     
0000b831  main                                                                         
20008ce8  main_func_sp                                                                 
00011041  mem_Free                                                                     
00010df1  memccpy                                                                      
0000b5c5  memcpy                                                                       
0000ca31  memset                                                                       
000115a9  osi_TaskDisable                                                              
00011529  osi_start                                                                    
000028f9  powf                                                                         
20007f9c  rxBuffer                                                                     
2000817c  s_accelXYZ                                                                   
20008020  s_bmi160                                                                     
20008182  s_gyroXYZ                                                                    
20008084  s_magcompXYZ                                                                 
00008f99  scalbn                                                                       
0000a14d  scalbnf                                                                      
00008f99  scalbnl                                                                      
20008138  sigmaWa                                                                      
20008090  sigmaWaData                                                                  
20008140  sigmaWm                                                                      
2000809c  sigmaWmData                                                                  
20008148  sigmaa                                                                       
200080a8  sigmaaData                                                                   
20008150  sigmag                                                                       
200080b4  sigmagData                                                                   
20008158  sigmam                                                                       
200080c0  sigmamData                                                                   
0000bb1d  snprintf                                                                     
0000744d  sqrt                                                                         
000106e9  sqrtf                                                                        
0000744d  sqrtl                                                                        
00011261  strchr                                                                       
00011071  strcmp                                                                       
00011361  strcpy                                                                       
20007770  stringBuffer                                                                 
00011375  strlen                                                                       
20008b44  ti_sysbios_BIOS_Module__state__V                                             
00011131  ti_sysbios_BIOS_RtsGateProxy_Handle__label__S                                
00010a61  ti_sysbios_BIOS_RtsGateProxy_Object__delete__S                               
00008965  ti_sysbios_BIOS_RtsGateProxy_enter__E                                        
00009095  ti_sysbios_BIOS_RtsGateProxy_leave__E                                        
00011959  ti_sysbios_BIOS_RtsGateProxy_query__E                                        
0001012d  ti_sysbios_BIOS_atExitFunc__I                                                
0001095d  ti_sysbios_BIOS_errorRaiseHook__I                                            
00011277  ti_sysbios_BIOS_exitFunc__I                                                  
000114f9  ti_sysbios_BIOS_getCpuFreq__E                                                
00011989  ti_sysbios_BIOS_linkedWithIncorrectBootLibrary__E                            
00006957  ti_sysbios_BIOS_nullFunc__I                                                  
00010981  ti_sysbios_BIOS_registerRTSLock__I                                           
000109a5  ti_sysbios_BIOS_removeRTSLock__I                                             
00010b9d  ti_sysbios_BIOS_rtsLock__I                                                   
00011089  ti_sysbios_BIOS_rtsUnlock__I                                                 
00011509  ti_sysbios_BIOS_setCpuFreq__E                                                
00011519  ti_sysbios_BIOS_setThreadType__E                                             
0000f9d9  ti_sysbios_BIOS_startFunc__I                                                 
00011529  ti_sysbios_BIOS_start__E                                                     
00013e70  ti_sysbios_family_arm_m3_Hwi_E_NMI__C                                        
00013e74  ti_sysbios_family_arm_m3_Hwi_E_alreadyDefined__C                             
00013e78  ti_sysbios_family_arm_m3_Hwi_E_busFault__C                                   
00013e7c  ti_sysbios_family_arm_m3_Hwi_E_debugMon__C                                   
00013e80  ti_sysbios_family_arm_m3_Hwi_E_hardFault__C                                  
00013e84  ti_sysbios_family_arm_m3_Hwi_E_memFault__C                                   
00013e88  ti_sysbios_family_arm_m3_Hwi_E_noIsr__C                                      
00013e8c  ti_sysbios_family_arm_m3_Hwi_E_reserved__C                                   
00013e90  ti_sysbios_family_arm_m3_Hwi_E_svCall__C                                     
00013e94  ti_sysbios_family_arm_m3_Hwi_E_usageFault__C                                 
000110a1  ti_sysbios_family_arm_m3_Hwi_Handle__label__S                                
0000fd01  ti_sysbios_family_arm_m3_Hwi_Instance_finalize__E                            
0000bbb1  ti_sysbios_family_arm_m3_Hwi_Instance_init__E                                
00013e98  ti_sysbios_family_arm_m3_Hwi_LD_end__C                                       
00013e9c  ti_sysbios_family_arm_m3_Hwi_LM_begin__C                                     
20008d0c  ti_sysbios_family_arm_m3_Hwi_Module_State_0_excActive__A                     
20008cec  ti_sysbios_family_arm_m3_Hwi_Module_State_0_excContext__A                    
20008cf0  ti_sysbios_family_arm_m3_Hwi_Module_State_0_excStack__A                      
00013ea0  ti_sysbios_family_arm_m3_Hwi_Module__diagsEnabled__C                         
00013ea4  ti_sysbios_family_arm_m3_Hwi_Module__diagsIncluded__C                        
00013ea8  ti_sysbios_family_arm_m3_Hwi_Module__diagsMask__C                            
0001375a  ti_sysbios_family_arm_m3_Hwi_Module__id__C                                   
00013b72  ti_sysbios_family_arm_m3_Hwi_Module__loggerDefined__C                        
00013eac  ti_sysbios_family_arm_m3_Hwi_Module__loggerFxn1__C                           
00013eb0  ti_sysbios_family_arm_m3_Hwi_Module__loggerFxn8__C                           
00013eb4  ti_sysbios_family_arm_m3_Hwi_Module__loggerObj__C                            
20008c6c  ti_sysbios_family_arm_m3_Hwi_Module__root__V                                 
000110b9  ti_sysbios_family_arm_m3_Hwi_Module__startupDone__F                          
000110b9  ti_sysbios_family_arm_m3_Hwi_Module__startupDone__S                          
200089fc  ti_sysbios_family_arm_m3_Hwi_Module__state__V                                
0000ed11  ti_sysbios_family_arm_m3_Hwi_Module_startup__E                               
00013eb8  ti_sysbios_family_arm_m3_Hwi_NUM_INTERRUPTS__C                               
000139c4  ti_sysbios_family_arm_m3_Hwi_Object__DESC__C                                 
00013610  ti_sysbios_family_arm_m3_Hwi_Object__PARAMS__C                               
00013ebc  ti_sysbios_family_arm_m3_Hwi_Object__count__C                                
00010e0d  ti_sysbios_family_arm_m3_Hwi_Object__destruct__S                             
00011389  ti_sysbios_family_arm_m3_Hwi_Object__get__S                                  
20008a60  ti_sysbios_family_arm_m3_Hwi_Object__table__V                                
00011721  ti_sysbios_family_arm_m3_Hwi_Params__init__S                                 
00013ec0  ti_sysbios_family_arm_m3_Hwi_ccr__C                                          
0000e769  ti_sysbios_family_arm_m3_Hwi_construct                                       
00009195  ti_sysbios_family_arm_m3_Hwi_destruct                                        
00011731  ti_sysbios_family_arm_m3_Hwi_disableFxn__E                                   
0000f061  ti_sysbios_family_arm_m3_Hwi_disableInterrupt__E                             
00008031  ti_sysbios_family_arm_m3_Hwi_dispatchC__I                                    
20007630  ti_sysbios_family_arm_m3_Hwi_dispatchTable                                   
00009a41  ti_sysbios_family_arm_m3_Hwi_dispatch__I                                     
000118d9  ti_sysbios_family_arm_m3_Hwi_doSwiRestore__I                                 
000109c9  ti_sysbios_family_arm_m3_Hwi_doTaskRestore__I                                
0000f0a9  ti_sysbios_family_arm_m3_Hwi_enableInterrupt__E                              
000072d9  ti_sysbios_family_arm_m3_Hwi_excBusFault__I                                  
0000a6c9  ti_sysbios_family_arm_m3_Hwi_excDebugMon__I                                  
00002e81  ti_sysbios_family_arm_m3_Hwi_excDumpRegs__I                                  
00010bbd  ti_sysbios_family_arm_m3_Hwi_excHandlerAsm__I                                
00013ec4  ti_sysbios_family_arm_m3_Hwi_excHandlerFunc__C                               
00005c51  ti_sysbios_family_arm_m3_Hwi_excHandlerMax__I                                
00010be1  ti_sysbios_family_arm_m3_Hwi_excHandler__I                                   
0000a789  ti_sysbios_family_arm_m3_Hwi_excHardFault__I                                 
00013e3c  ti_sysbios_family_arm_m3_Hwi_excHookFuncs__A                                 
00013ec8  ti_sysbios_family_arm_m3_Hwi_excHookFuncs__C                                 
000079e9  ti_sysbios_family_arm_m3_Hwi_excMemFault__I                                  
0000fd39  ti_sysbios_family_arm_m3_Hwi_excNmi__I                                       
0000fa11  ti_sysbios_family_arm_m3_Hwi_excNoIsr__I                                     
0000f0f1  ti_sysbios_family_arm_m3_Hwi_excReserved__I                                  
0000f801  ti_sysbios_family_arm_m3_Hwi_excSvCall__I                                    
00007729  ti_sysbios_family_arm_m3_Hwi_excUsageFault__I                                
0000f2e1  ti_sysbios_family_arm_m3_Hwi_getStackInfo__E                                 
0000bc49  ti_sysbios_family_arm_m3_Hwi_initNVIC__E                                     
0000e7c1  ti_sysbios_family_arm_m3_Hwi_initStacks__E                                   
00013ecc  ti_sysbios_family_arm_m3_Hwi_nullIsrFunc__C                                  
e000e000  ti_sysbios_family_arm_m3_Hwi_nvic                                            
0001075f  ti_sysbios_family_arm_m3_Hwi_pendSV__I                                       
0000c629  ti_sysbios_family_arm_m3_Hwi_postInit__I                                     
00013ed0  ti_sysbios_family_arm_m3_Hwi_priGroup__C                                     
20000000  ti_sysbios_family_arm_m3_Hwi_ramVectors                                      
00000000  ti_sysbios_family_arm_m3_Hwi_resetVectors                                    
00011911  ti_sysbios_family_arm_m3_Hwi_restoreFxn__E                                   
00010783  ti_sysbios_family_arm_m3_Hwi_return                                          
000118e1  ti_sysbios_family_arm_m3_Hwi_startup__E                                      
000113a1  ti_sysbios_family_arm_m3_Hwi_switchFromBootStack__E                          
00009485  ti_sysbios_family_arm_m3_TaskSupport_Module__startupDone__S                  
0000c15d  ti_sysbios_family_arm_m3_TaskSupport_buildTaskStack                          
00011741  ti_sysbios_family_arm_m3_TaskSupport_checkStack__E                           
00011751  ti_sysbios_family_arm_m3_TaskSupport_getStackAlignment__E                    
00011539  ti_sysbios_family_arm_m3_TaskSupport_glue                                    
00013ed4  ti_sysbios_family_arm_m3_TaskSupport_stackAlignment__C                       
00010161  ti_sysbios_family_arm_m3_TaskSupport_start__E                                
000110d1  ti_sysbios_family_arm_m3_TaskSupport_swap__E                                 
00013ed8  ti_sysbios_family_arm_m3_Timer_E_cannotSupport__C                            
00013c8e  ti_sysbios_family_arm_m3_Timer_Module__id__C                                 
20008c04  ti_sysbios_family_arm_m3_Timer_Module__state__V                              
0000f709  ti_sysbios_family_arm_m3_Timer_Module_startup__E                             
20008a90  ti_sysbios_family_arm_m3_Timer_Object__table__V                              
0000f139  ti_sysbios_family_arm_m3_Timer_initDevice__I                                 
0000fd71  ti_sysbios_family_arm_m3_Timer_periodicStub__I                               
0000e819  ti_sysbios_family_arm_m3_Timer_setPeriod__E                                  
0000ea19  ti_sysbios_family_arm_m3_Timer_start__E                                      
00013edc  ti_sysbios_family_arm_m3_Timer_startupNeeded__C                              
000109f1  ti_sysbios_family_arm_m3_Timer_startup__E                                    
20008cf4  ti_sysbios_family_arm_m3_TimestampProvider_Module__state__V                  
00010c01  ti_sysbios_family_arm_m3_TimestampProvider_Module_startup__E                 
00013cda  ti_sysbios_family_arm_m3_TimestampProvider_configTimer__C                    
0000e149  ti_sysbios_family_arm_m3_TimestampProvider_get32__E                          
0000cc81  ti_sysbios_family_arm_m3_TimestampProvider_get64__E                          
000114f9  ti_sysbios_family_arm_m3_TimestampProvider_getFreq__E                        
00011991  ti_sysbios_family_arm_m3_TimestampProvider_rolloverFunc__E                   
00011761  ti_sysbios_family_arm_m3_TimestampProvider_startTimer__E                     
20008c10  ti_sysbios_family_arm_msp432_ClockFreqs_Module__state__V                     
00010a19  ti_sysbios_family_arm_msp432_ClockFreqs_setFrequency__E                      
20008b68  ti_sysbios_family_arm_msp432_Timer_Module_State_0_device__A                  
20008be8  ti_sysbios_family_arm_msp432_Timer_Module_State_0_handles__A                 
000110e9  ti_sysbios_family_arm_msp432_Timer_Module__startupDone__F                    
000110e9  ti_sysbios_family_arm_msp432_Timer_Module__startupDone__S                    
20008c1c  ti_sysbios_family_arm_msp432_Timer_Module__state__V                          
0000c389  ti_sysbios_family_arm_msp432_Timer_Module_startup__E                         
20008934  ti_sysbios_family_arm_msp432_Timer_Object__table__V                          
00011771  ti_sysbios_family_arm_msp432_Timer_getMaxTicks__E                            
0000ea71  ti_sysbios_family_arm_msp432_Timer_initDevice__I                             
00013ee0  ti_sysbios_family_arm_msp432_Timer_numTimerDevices__C                        
0000b0b1  ti_sysbios_family_arm_msp432_Timer_periodicStub__E                           
00013ee4  ti_sysbios_family_arm_msp432_Timer_startupNeeded__C                          
0000c839  ti_sysbios_family_arm_msp432_Timer_startup__E                                
0000eac9  ti_sysbios_family_arm_msp432_init_Boot_configureClocksHigh                   
00011549  ti_sysbios_family_arm_msp432_init_Boot_disableWatchdog                       
0001168f  ti_sysbios_family_arm_msp432_init_Boot_init__I                               
00010d61  ti_sysbios_family_xxx_Hwi_switchAndRunFunc                                   
00011101  ti_sysbios_gates_GateHwi_Handle__label__S                                    
00011999  ti_sysbios_gates_GateHwi_Instance_init__E                                    
000137c8  ti_sysbios_gates_GateHwi_Module__FXNS__C                                     
20008c74  ti_sysbios_gates_GateHwi_Module__root__V                                     
000139e4  ti_sysbios_gates_GateHwi_Object__DESC__C                                     
00013bbc  ti_sysbios_gates_GateHwi_Object__PARAMS__C                                   
00010191  ti_sysbios_gates_GateHwi_Object__create__S                                   
00010c21  ti_sysbios_gates_GateHwi_Object__delete__S                                   
20008cf8  ti_sysbios_gates_GateHwi_Object__table__V                                    
00011781  ti_sysbios_gates_GateHwi_enter__E                                            
00011919  ti_sysbios_gates_GateHwi_leave__E                                            
00011949  ti_sysbios_gates_GateHwi_query__E                                            
00013ee8  ti_sysbios_gates_GateMutexPri_A_badContext__C                                
00013eec  ti_sysbios_gates_GateMutexPri_A_enterTaskDisabled__C                         
00011119  ti_sysbios_gates_GateMutexPri_Handle__label__S                               
00013ef0  ti_sysbios_gates_GateMutexPri_Instance_State_pendQ__O                        
00011559  ti_sysbios_gates_GateMutexPri_Instance_finalize__E                           
00010e29  ti_sysbios_gates_GateMutexPri_Instance_init__E                               
000137ec  ti_sysbios_gates_GateMutexPri_Module__FXNS__C                                
00013ef4  ti_sysbios_gates_GateMutexPri_Module__diagsEnabled__C                        
00013ef8  ti_sysbios_gates_GateMutexPri_Module__diagsIncluded__C                       
00013efc  ti_sysbios_gates_GateMutexPri_Module__diagsMask__C                           
00013d96  ti_sysbios_gates_GateMutexPri_Module__id__C                                  
20008c7c  ti_sysbios_gates_GateMutexPri_Module__root__V                                
00013a04  ti_sysbios_gates_GateMutexPri_Object__DESC__C                                
00013bd4  ti_sysbios_gates_GateMutexPri_Object__PARAMS__C                              
000101c1  ti_sysbios_gates_GateMutexPri_Object__create__S                              
00010a3d  ti_sysbios_gates_GateMutexPri_Object__delete__S                              
0001178d  ti_sysbios_gates_GateMutexPri_Params__init__S                                
000101f1  ti_sysbios_gates_GateMutexPri_create                                         
00006959  ti_sysbios_gates_GateMutexPri_enter__E                                       
0000d161  ti_sysbios_gates_GateMutexPri_leave__E                                       
00011951  ti_sysbios_gates_GateMutexPri_query__E                                       
00013f00  ti_sysbios_gates_GateMutex_A_badContext__C                                   
00011131  ti_sysbios_gates_GateMutex_Handle__label__S                                  
00013f04  ti_sysbios_gates_GateMutex_Instance_State_sem__O                             
00011569  ti_sysbios_gates_GateMutex_Instance_finalize__E                              
00010e49  ti_sysbios_gates_GateMutex_Instance_init__E                                  
00013810  ti_sysbios_gates_GateMutex_Module__FXNS__C                                   
00013f08  ti_sysbios_gates_GateMutex_Module__diagsEnabled__C                           
00013f0c  ti_sysbios_gates_GateMutex_Module__diagsIncluded__C                          
00013f10  ti_sysbios_gates_GateMutex_Module__diagsMask__C                              
00013e6e  ti_sysbios_gates_GateMutex_Module__id__C                                     
20008c84  ti_sysbios_gates_GateMutex_Module__root__V                                   
00013a24  ti_sysbios_gates_GateMutex_Object__DESC__C                                   
00013bec  ti_sysbios_gates_GateMutex_Object__PARAMS__C                                 
00010221  ti_sysbios_gates_GateMutex_Object__create__S                                 
00010a61  ti_sysbios_gates_GateMutex_Object__delete__S                                 
200089c4  ti_sysbios_gates_GateMutex_Object__table__V                                  
0000aa71  ti_sysbios_gates_GateMutex_enter__E                                          
00011149  ti_sysbios_gates_GateMutex_leave__E                                          
00011959  ti_sysbios_gates_GateMutex_query__E                                          
00013f14  ti_sysbios_hal_Hwi_E_stackOverflow__C                                        
000110a1  ti_sysbios_hal_Hwi_HwiProxy_Handle__label__S                                 
000110b9  ti_sysbios_hal_Hwi_HwiProxy_Module__startupDone__S                           
00011721  ti_sysbios_hal_Hwi_HwiProxy_Params__init__S                                  
0000f061  ti_sysbios_hal_Hwi_HwiProxy_disableInterrupt__E                              
00011731  ti_sysbios_hal_Hwi_HwiProxy_disable__E                                       
0000f0a9  ti_sysbios_hal_Hwi_HwiProxy_enableInterrupt__E                               
0000f2e1  ti_sysbios_hal_Hwi_HwiProxy_getStackInfo__E                                  
00011911  ti_sysbios_hal_Hwi_HwiProxy_restore__E                                       
000118e1  ti_sysbios_hal_Hwi_HwiProxy_startup__E                                       
000113a1  ti_sysbios_hal_Hwi_HwiProxy_switchFromBootStack__E                           
00014144  ti_sysbios_hal_Hwi_Module__id__C                                             
00011461  ti_sysbios_hal_Hwi_Module_startup__E                                         
0000fda9  ti_sysbios_hal_Hwi_checkStack                                                
0000feb1  ti_sysbios_hal_Hwi_initStack                                                 
00013f18  ti_sysbios_heaps_HeapMem_A_align__C                                          
00013f1c  ti_sysbios_heaps_HeapMem_A_heapSize__C                                       
00013f20  ti_sysbios_heaps_HeapMem_A_invalidFree__C                                    
00013f24  ti_sysbios_heaps_HeapMem_A_zeroBlock__C                                      
00013f28  ti_sysbios_heaps_HeapMem_E_memory__C                                         
00011161  ti_sysbios_heaps_HeapMem_Handle__label__S                                    
20000180  ti_sysbios_heaps_HeapMem_Instance_State_0_buf__A                             
00007db1  ti_sysbios_heaps_HeapMem_Instance_init__E                                    
00011131  ti_sysbios_heaps_HeapMem_Module_GateProxy_Handle__label__S                   
00010a61  ti_sysbios_heaps_HeapMem_Module_GateProxy_Object__delete__S                  
0000a545  ti_sysbios_heaps_HeapMem_Module_GateProxy_enter__E                           
0000a785  ti_sysbios_heaps_HeapMem_Module_GateProxy_leave__E                           
00011959  ti_sysbios_heaps_HeapMem_Module_GateProxy_query__E                           
000136c0  ti_sysbios_heaps_HeapMem_Module__FXNS__C                                     
00013f2c  ti_sysbios_heaps_HeapMem_Module__diagsEnabled__C                             
00013f30  ti_sysbios_heaps_HeapMem_Module__diagsIncluded__C                            
00013f34  ti_sysbios_heaps_HeapMem_Module__diagsMask__C                                
00013f38  ti_sysbios_heaps_HeapMem_Module__gateObj__C                                  
00014146  ti_sysbios_heaps_HeapMem_Module__id__C                                       
20008c8c  ti_sysbios_heaps_HeapMem_Module__root__V                                     
00013a44  ti_sysbios_heaps_HeapMem_Object__DESC__C                                     
00013834  ti_sysbios_heaps_HeapMem_Object__PARAMS__C                                   
00013f3c  ti_sysbios_heaps_HeapMem_Object__count__C                                    
00010251  ti_sysbios_heaps_HeapMem_Object__create__S                                   
00010c41  ti_sysbios_heaps_HeapMem_Object__delete__S                                   
000113b5  ti_sysbios_heaps_HeapMem_Object__get__S                                      
20008bc0  ti_sysbios_heaps_HeapMem_Object__table__V                                    
000053f1  ti_sysbios_heaps_HeapMem_alloc__E                                            
00005199  ti_sysbios_heaps_HeapMem_free__E                                             
0000ee99  ti_sysbios_heaps_HeapMem_getStats__E                                         
0000f841  ti_sysbios_heaps_HeapMem_init__I                                             
00011921  ti_sysbios_heaps_HeapMem_isBlocking__E                                       
00013f40  ti_sysbios_heaps_HeapMem_reqAlign__C                                         
00013f44  ti_sysbios_knl_Clock_A_badThreadType__C                                      
0000b2a9  ti_sysbios_knl_Clock_Instance_finalize__E                                    
000084f9  ti_sysbios_knl_Clock_Instance_init__E                                        
00013f48  ti_sysbios_knl_Clock_LM_begin__C                                             
00013f4c  ti_sysbios_knl_Clock_LM_tick__C                                              
00013f50  ti_sysbios_knl_Clock_LW_delayed__C                                           
00013f54  ti_sysbios_knl_Clock_Module_State_clockQ__O                                  
00013f58  ti_sysbios_knl_Clock_Module__diagsEnabled__C                                 
00013f5c  ti_sysbios_knl_Clock_Module__diagsIncluded__C                                
00013f60  ti_sysbios_knl_Clock_Module__diagsMask__C                                    
00014148  ti_sysbios_knl_Clock_Module__id__C                                           
0001414a  ti_sysbios_knl_Clock_Module__loggerDefined__C                                
00013f64  ti_sysbios_knl_Clock_Module__loggerFxn1__C                                   
00013f68  ti_sysbios_knl_Clock_Module__loggerFxn2__C                                   
00013f6c  ti_sysbios_knl_Clock_Module__loggerObj__C                                    
20008c94  ti_sysbios_knl_Clock_Module__root__V                                         
20008af0  ti_sysbios_knl_Clock_Module__state__V                                        
00010a89  ti_sysbios_knl_Clock_Module_startup__E                                       
00013a64  ti_sysbios_knl_Clock_Object__DESC__C                                         
00013858  ti_sysbios_knl_Clock_Object__PARAMS__C                                       
00010c61  ti_sysbios_knl_Clock_Object__destruct__S                                     
00011799  ti_sysbios_knl_Clock_Params__init__S                                         
000110e9  ti_sysbios_knl_Clock_TimerProxy_Module__startupDone__S                       
0000a8fd  ti_sysbios_knl_Clock_TimerProxy_getMaxTicks__E                               
0000c839  ti_sysbios_knl_Clock_TimerProxy_startup__E                                   
0000fddd  ti_sysbios_knl_Clock_construct                                               
0000aa6d  ti_sysbios_knl_Clock_destruct                                                
00010479  ti_sysbios_knl_Clock_doTick__I                                               
000117a9  ti_sysbios_knl_Clock_getTicks__E                                             
0000e1a9  ti_sysbios_knl_Clock_logTick__E                                              
00011961  ti_sysbios_knl_Clock_setTimeout__E                                           
0000ccf9  ti_sysbios_knl_Clock_start__E                                                
00011929  ti_sysbios_knl_Clock_stop__E                                                 
00007ef1  ti_sysbios_knl_Clock_workFunc__E                                             
00013e04  ti_sysbios_knl_Idle_funcList__A                                              
00013e44  ti_sysbios_knl_Idle_funcList__C                                              
00011671  ti_sysbios_knl_Idle_loop__E                                                  
00010c81  ti_sysbios_knl_Idle_run__E                                                   
00013f70  ti_sysbios_knl_Mailbox_A_invalidBufSize__C                                   
00013f74  ti_sysbios_knl_Mailbox_Instance_State_dataQue__O                             
00013f78  ti_sysbios_knl_Mailbox_Instance_State_dataSem__O                             
00013f7c  ti_sysbios_knl_Mailbox_Instance_State_freeQue__O                             
00013f80  ti_sysbios_knl_Mailbox_Instance_State_freeSem__O                             
0000cec9  ti_sysbios_knl_Mailbox_Instance_finalize__E                                  
00007891  ti_sysbios_knl_Mailbox_Instance_init__E                                      
00013f84  ti_sysbios_knl_Mailbox_Module__diagsEnabled__C                               
00013f88  ti_sysbios_knl_Mailbox_Module__diagsIncluded__C                              
00013f8c  ti_sysbios_knl_Mailbox_Module__diagsMask__C                                  
0001414c  ti_sysbios_knl_Mailbox_Module__id__C                                         
20008c9c  ti_sysbios_knl_Mailbox_Module__root__V                                       
0000c411  ti_sysbios_knl_Mailbox_Module_startup__E                                     
00013a84  ti_sysbios_knl_Mailbox_Object__DESC__C                                       
000135dc  ti_sysbios_knl_Mailbox_Object__PARAMS__C                                     
00013f90  ti_sysbios_knl_Mailbox_Object__count__C                                      
00010ca1  ti_sysbios_knl_Mailbox_Object__delete__S                                     
00011579  ti_sysbios_knl_Mailbox_Object__get__S                                        
000117b5  ti_sysbios_knl_Mailbox_Params__init__S                                       
0000df5d  ti_sysbios_knl_Mailbox_create                                                
0000ab25  ti_sysbios_knl_Mailbox_delete                                                
00013f94  ti_sysbios_knl_Mailbox_maxTypeAlign__C                                       
0000c1e9  ti_sysbios_knl_Mailbox_pend__E                                               
0000f329  ti_sysbios_knl_Mailbox_postInit__I                                           
0000b8c9  ti_sysbios_knl_Mailbox_post__E                                               
00011931  ti_sysbios_knl_Queue_Instance_init__E                                        
20008ca4  ti_sysbios_knl_Queue_Module__root__V                                         
00013aa4  ti_sysbios_knl_Queue_Object__DESC__C                                         
00013c04  ti_sysbios_knl_Queue_Object__PARAMS__C                                       
00010e65  ti_sysbios_knl_Queue_Object__destruct__S                                     
000117c1  ti_sysbios_knl_Queue_Object__get__S                                          
000104a5  ti_sysbios_knl_Queue_construct                                               
0000aded  ti_sysbios_knl_Queue_destruct                                                
00011681  ti_sysbios_knl_Queue_empty__E                                                
00013f98  ti_sysbios_knl_Semaphore_A_badContext__C                                     
00013f9c  ti_sysbios_knl_Semaphore_A_noEvents__C                                       
00013fa0  ti_sysbios_knl_Semaphore_A_overflow__C                                       
00013fa4  ti_sysbios_knl_Semaphore_A_pendTaskDisabled__C                               
00013fa8  ti_sysbios_knl_Semaphore_Instance_State_pendQ__O                             
00011589  ti_sysbios_knl_Semaphore_Instance_finalize__E                                
0000b661  ti_sysbios_knl_Semaphore_Instance_init__E                                    
00013fac  ti_sysbios_knl_Semaphore_LM_pend__C                                          
00013fb0  ti_sysbios_knl_Semaphore_LM_post__C                                          
00013fb4  ti_sysbios_knl_Semaphore_Module__diagsEnabled__C                             
00013fb8  ti_sysbios_knl_Semaphore_Module__diagsIncluded__C                            
00013fbc  ti_sysbios_knl_Semaphore_Module__diagsMask__C                                
0001414e  ti_sysbios_knl_Semaphore_Module__id__C                                       
00014150  ti_sysbios_knl_Semaphore_Module__loggerDefined__C                            
00013fc0  ti_sysbios_knl_Semaphore_Module__loggerFxn2__C                               
00013fc4  ti_sysbios_knl_Semaphore_Module__loggerFxn4__C                               
00013fc8  ti_sysbios_knl_Semaphore_Module__loggerObj__C                                
20008cac  ti_sysbios_knl_Semaphore_Module__root__V                                     
00013ac4  ti_sysbios_knl_Semaphore_Object__DESC__C                                     
0001387c  ti_sysbios_knl_Semaphore_Object__PARAMS__C                                   
00010cc1  ti_sysbios_knl_Semaphore_Object__destruct__S                                 
000117cd  ti_sysbios_knl_Semaphore_Params__init__S                                     
00010281  ti_sysbios_knl_Semaphore_construct                                           
0000b0ad  ti_sysbios_knl_Semaphore_destruct                                            
0000fee9  ti_sysbios_knl_Semaphore_pendTimeout__I                                      
000044a1  ti_sysbios_knl_Semaphore_pend__E                                             
00007c71  ti_sysbios_knl_Semaphore_post__E                                             
00011179  ti_sysbios_knl_Swi_Handle__label__S                                          
00013fcc  ti_sysbios_knl_Swi_LD_end__C                                                 
00013fd0  ti_sysbios_knl_Swi_LM_begin__C                                               
00013fd4  ti_sysbios_knl_Swi_LM_post__C                                                
200087fc  ti_sysbios_knl_Swi_Module_State_0_readyQ__A                                  
00013fd8  ti_sysbios_knl_Swi_Module__diagsEnabled__C                                   
00013fdc  ti_sysbios_knl_Swi_Module__diagsIncluded__C                                  
00013fe0  ti_sysbios_knl_Swi_Module__diagsMask__C                                      
00014152  ti_sysbios_knl_Swi_Module__id__C                                             
00014154  ti_sysbios_knl_Swi_Module__loggerDefined__C                                  
00013fe4  ti_sysbios_knl_Swi_Module__loggerFxn1__C                                     
00013fe8  ti_sysbios_knl_Swi_Module__loggerFxn4__C                                     
00013fec  ti_sysbios_knl_Swi_Module__loggerObj__C                                      
20008b88  ti_sysbios_knl_Swi_Module__state__V                                          
00010711  ti_sysbios_knl_Swi_Module_startup__E                                         
00013ff0  ti_sysbios_knl_Swi_Object__count__C                                          
000113c9  ti_sysbios_knl_Swi_Object__get__S                                            
20008ac0  ti_sysbios_knl_Swi_Object__table__V                                          
00011599  ti_sysbios_knl_Swi_disable__E                                                
0000b001  ti_sysbios_knl_Swi_post__E                                                   
0000d1d1  ti_sysbios_knl_Swi_restoreHwi__E                                             
0000f881  ti_sysbios_knl_Swi_restore__E                                                
0000eee9  ti_sysbios_knl_Swi_runLoop__I                                                
00008619  ti_sysbios_knl_Swi_run__I                                                    
0000e499  ti_sysbios_knl_Swi_schedule__I                                               
00011939  ti_sysbios_knl_Swi_startup__E                                                
00013ff4  ti_sysbios_knl_Task_A_badPriority__C                                         
00013ff8  ti_sysbios_knl_Task_A_badTaskState__C                                        
00013ffc  ti_sysbios_knl_Task_A_badThreadType__C                                       
00014000  ti_sysbios_knl_Task_A_badTimeout__C                                          
00014004  ti_sysbios_knl_Task_A_noPendElem__C                                          
00014008  ti_sysbios_knl_Task_A_sleepTaskDisabled__C                                   
0001400c  ti_sysbios_knl_Task_E_spOutOfBounds__C                                       
00014010  ti_sysbios_knl_Task_E_stackOverflow__C                                       
00011191  ti_sysbios_knl_Task_Handle__label__S                                         
200081b0  ti_sysbios_knl_Task_Instance_State_0_hookEnv__A                              
20006d48  ti_sysbios_knl_Task_Instance_State_0_stack__A                                
00004a61  ti_sysbios_knl_Task_Instance_finalize__E                                     
00006041  ti_sysbios_knl_Task_Instance_init__E                                         
00014014  ti_sysbios_knl_Task_LD_block__C                                              
00014018  ti_sysbios_knl_Task_LD_exit__C                                               
0001401c  ti_sysbios_knl_Task_LD_ready__C                                              
00014020  ti_sysbios_knl_Task_LM_setPri__C                                             
00014024  ti_sysbios_knl_Task_LM_sleep__C                                              
00014028  ti_sysbios_knl_Task_LM_switch__C                                             
0001402c  ti_sysbios_knl_Task_LM_yield__C                                              
20008cfc  ti_sysbios_knl_Task_Module_State_0_idleTask__A                               
200085c8  ti_sysbios_knl_Task_Module_State_0_readyQ__A                                 
00014030  ti_sysbios_knl_Task_Module_State_inactiveQ__O                                
00014034  ti_sysbios_knl_Task_Module__diagsEnabled__C                                  
00014038  ti_sysbios_knl_Task_Module__diagsIncluded__C                                 
0001403c  ti_sysbios_knl_Task_Module__diagsMask__C                                     
00014156  ti_sysbios_knl_Task_Module__id__C                                            
00014158  ti_sysbios_knl_Task_Module__loggerDefined__C                                 
00014040  ti_sysbios_knl_Task_Module__loggerFxn2__C                                    
00014044  ti_sysbios_knl_Task_Module__loggerFxn4__C                                    
00014048  ti_sysbios_knl_Task_Module__loggerObj__C                                     
20008c28  ti_sysbios_knl_Task_Module__root__V                                          
20008980  ti_sysbios_knl_Task_Module__state__V                                         
0000bf21  ti_sysbios_knl_Task_Module_startup__E                                        
00013ae4  ti_sysbios_knl_Task_Object__DESC__C                                          
000135a0  ti_sysbios_knl_Task_Object__PARAMS__C                                        
0001404c  ti_sysbios_knl_Task_Object__count__C                                         
00010ce1  ti_sysbios_knl_Task_Object__delete__S                                        
000113dd  ti_sysbios_knl_Task_Object__first__S                                         
000113f1  ti_sysbios_knl_Task_Object__get__S                                           
00014050  ti_sysbios_knl_Task_Object__heap__C                                          
00011405  ti_sysbios_knl_Task_Object__next__S                                          
200088e4  ti_sysbios_knl_Task_Object__table__V                                         
000117d9  ti_sysbios_knl_Task_Params__init__S                                          
00009485  ti_sysbios_knl_Task_SupportProxy_Module__startupDone__S                      
00011741  ti_sysbios_knl_Task_SupportProxy_checkStack__E                               
00011751  ti_sysbios_knl_Task_SupportProxy_getStackAlignment__E                        
00010161  ti_sysbios_knl_Task_SupportProxy_start__E                                    
000110d1  ti_sysbios_knl_Task_SupportProxy_swap__E                                     
00014054  ti_sysbios_knl_Task_allBlockedFunc__C                                        
0000ef39  ti_sysbios_knl_Task_allBlockedFunction__I                                    
0000b159  ti_sysbios_knl_Task_blockI__E                                                
0000ab29  ti_sysbios_knl_Task_checkStacks__E                                           
0000e4f5  ti_sysbios_knl_Task_create                                                   
00014058  ti_sysbios_knl_Task_defaultStackHeap__C                                      
0001405c  ti_sysbios_knl_Task_defaultStackSize__C                                      
0000b2a5  ti_sysbios_knl_Task_delete                                                   
000115a9  ti_sysbios_knl_Task_disable__E                                               
00010e81  ti_sysbios_knl_Task_enter__I                                                 
0000a3b9  ti_sysbios_knl_Task_exit__E                                                  
00011969  ti_sysbios_knl_Task_getEnv__E                                                
00011291  ti_sysbios_knl_Task_getFunc__E                                               
00010ab1  ti_sysbios_knl_Task_getMode__E                                               
00011971  ti_sysbios_knl_Task_getPri__E                                                
00013c1c  ti_sysbios_knl_Task_hooks__A                                                 
00013e4c  ti_sysbios_knl_Task_hooks__C                                                 
00014060  ti_sysbios_knl_Task_numConstructedTasks__C                                   
00014064  ti_sysbios_knl_Task_numPriorities__C                                         
00009099  ti_sysbios_knl_Task_postInit__I                                              
0000fa49  ti_sysbios_knl_Task_processVitalTaskFlag__I                                  
000104d1  ti_sysbios_knl_Task_restore__E                                               
00008969  ti_sysbios_knl_Task_schedule__I                                              
000117e9  ti_sysbios_knl_Task_self__E                                                  
00011979  ti_sysbios_knl_Task_setEnv__E                                                
00006fd9  ti_sysbios_knl_Task_setPri__E                                                
00010f49  ti_sysbios_knl_Task_sleepTimeout__I                                          
00005851  ti_sysbios_knl_Task_sleep__E                                                 
00009199  ti_sysbios_knl_Task_startCore__E                                             
00011981  ti_sysbios_knl_Task_startup__E                                               
000110dd  ti_sysbios_knl_Task_swapReturn                                               
0000a901  ti_sysbios_knl_Task_unblockI__E                                              
0000adf1  ti_sysbios_knl_Task_yield__E                                                 
00014068  ti_sysbios_utils_Load_LS_cpuLoad__C                                          
0001406c  ti_sysbios_utils_Load_LS_taskLoad__C                                         
20008d00  ti_sysbios_utils_Load_Module_State_0_runningTask__A                          
20008ba4  ti_sysbios_utils_Load_Module_State_0_taskEnv__A                              
20008d04  ti_sysbios_utils_Load_Module_State_0_taskStartTime__A                        
00014070  ti_sysbios_utils_Load_Module_State_taskList__O                               
00014074  ti_sysbios_utils_Load_Module__diagsEnabled__C                                
00014078  ti_sysbios_utils_Load_Module__diagsIncluded__C                               
0001407c  ti_sysbios_utils_Load_Module__diagsMask__C                                   
0001415a  ti_sysbios_utils_Load_Module__id__C                                          
0001415c  ti_sysbios_utils_Load_Module__loggerDefined__C                               
00014080  ti_sysbios_utils_Load_Module__loggerFxn1__C                                  
00014084  ti_sysbios_utils_Load_Module__loggerFxn4__C                                  
00014088  ti_sysbios_utils_Load_Module__loggerObj__C                                   
20008764  ti_sysbios_utils_Load_Module__state__V                                       
0000d529  ti_sysbios_utils_Load_addTask__E                                             
0001415e  ti_sysbios_utils_Load_autoAddTasks__C                                        
0000aea1  ti_sysbios_utils_Load_idleFxn__E                                             
0000e209  ti_sysbios_utils_Load_logCPULoad__I                                          
0000a549  ti_sysbios_utils_Load_logLoads__I                                            
0001408c  ti_sysbios_utils_Load_postUpdate__C                                          
0000f371  ti_sysbios_utils_Load_removeTask__E                                          
0000bfb1  ti_sysbios_utils_Load_startup__E                                             
0000d241  ti_sysbios_utils_Load_taskCreateHook__E                                      
0000f181  ti_sysbios_utils_Load_taskDeleteHook__E                                      
000117f9  ti_sysbios_utils_Load_taskRegHook__E                                         
0000eb21  ti_sysbios_utils_Load_taskSwitchHook__E                                      
0000e269  ti_sysbios_utils_Load_updateCurrentThreadTime__E                             
00014160  ti_sysbios_utils_Load_updateInIdle__C                                        
0000af51  ti_sysbios_utils_Load_updateLoads__E                                         
00009489  ti_sysbios_utils_Load_updateThreadContexts__E                                
0000af51  ti_sysbios_utils_Load_update__E                                              
00014090  ti_sysbios_utils_Load_windowInMs__C                                          
000111a9  ti_uia_loggers_LoggerStopMode_Handle__label__S                               
20007e80  ti_uia_loggers_LoggerStopMode_Instance_State_0_hdr__A                        
20004300  ti_uia_loggers_LoggerStopMode_Instance_State_0_packetArray__A                
20007f00  ti_uia_loggers_LoggerStopMode_Instance_State_1_hdr__A                        
20006f80  ti_uia_loggers_LoggerStopMode_Instance_State_1_packetArray__A                
00010e9d  ti_uia_loggers_LoggerStopMode_Instance_init__E                               
00013470  ti_uia_loggers_LoggerStopMode_Module__FXNS__C                                
00014094  ti_uia_loggers_LoggerStopMode_Module__diagsEnabled__C                        
00014098  ti_uia_loggers_LoggerStopMode_Module__diagsIncluded__C                       
0001409c  ti_uia_loggers_LoggerStopMode_Module__diagsMask__C                           
00014162  ti_uia_loggers_LoggerStopMode_Module__id__C                                  
20008cb4  ti_uia_loggers_LoggerStopMode_Module__root__V                                
0000ef85  ti_uia_loggers_LoggerStopMode_Module_startup__E                              
00013b04  ti_uia_loggers_LoggerStopMode_Object__DESC__C                                
000136e8  ti_uia_loggers_LoggerStopMode_Object__PARAMS__C                              
000140a0  ti_uia_loggers_LoggerStopMode_Object__count__C                               
000102b1  ti_uia_loggers_LoggerStopMode_Object__create__S                              
00010d01  ti_uia_loggers_LoggerStopMode_Object__delete__S                              
000115b9  ti_uia_loggers_LoggerStopMode_Object__get__S                                 
2000887c  ti_uia_loggers_LoggerStopMode_Object__table__V                               
000112a7  ti_uia_loggers_LoggerStopMode_disable__E                                     
000112bd  ti_uia_loggers_LoggerStopMode_enable__E                                      
0000d5f7  ti_uia_loggers_LoggerStopMode_flush__E                                       
0000bc45  ti_uia_loggers_LoggerStopMode_getContents__E                                 
0000c835  ti_uia_loggers_LoggerStopMode_getFilterLevel__E                              
0000cc7d  ti_uia_loggers_LoggerStopMode_getInstanceId__E                               
0000ccf5  ti_uia_loggers_LoggerStopMode_getMaxLength__E                                
0000cec5  ti_uia_loggers_LoggerStopMode_getPriority__E                                 
0000d15d  ti_uia_loggers_LoggerStopMode_getTransferType__E                             
0000f3b5  ti_uia_loggers_LoggerStopMode_initBuffer__I                                  
0000c041  ti_uia_loggers_LoggerStopMode_initQueueDescriptor__E                         
000115c9  ti_uia_loggers_LoggerStopMode_isEmpty__E                                     
00014164  ti_uia_loggers_LoggerStopMode_isTimestampEnabled__C                          
0000fe11  ti_uia_loggers_LoggerStopMode_reset__E                                       
000083d7  ti_uia_loggers_LoggerStopMode_setFilterLevel__E                              
0000b797  ti_uia_loggers_LoggerStopMode_setPriority__E                                 
00009fa1  ti_uia_loggers_LoggerStopMode_write0__E                                      
00009c15  ti_uia_loggers_LoggerStopMode_write1__E                                      
00009cfd  ti_uia_loggers_LoggerStopMode_write2__E                                      
00009771  ti_uia_loggers_LoggerStopMode_write4__E                                      
00008c91  ti_uia_loggers_LoggerStopMode_write8__E                                      
00008169  ti_uia_loggers_LoggerStopMode_writeMemoryRange__E                            
000140a4  ti_uia_runtime_ILoggerSnapshot_Interface__BASE__C                            
000140a8  ti_uia_runtime_IUIATransfer_Interface__BASE__C                               
20008c34  ti_uia_runtime_QueueDescriptor_Module__state__V                              
0000cd6d  ti_uia_runtime_QueueDescriptor_addToList__E                                  
20008c64  ti_uia_runtime_QueueDescriptor_gPtrToFirstDescriptor                         
20008c68  ti_uia_runtime_QueueDescriptor_gUpdateCount                                  
200081b4  ts                                                                           
200080cc  txBuffer                                                                     
200081b8  uart                                                                         
00013400  uartMSP432Baudrates                                                          
00013518  uartMSP432HWAttrs                                                            
200079b8  uartMSP432Objects                                                            
20007de8  uartMSP432RingBuffer                                                         
20007f78  uartParams                                                                   
200081c8  v_fifo_data_u8                                                               
20008160  x                                                                            
20007e58  xData                                                                        
000140ac  xdc_runtime_Assert_E_assertFailed__C                                         
0000eb75  xdc_runtime_Assert_raise__I                                                  
000140b0  xdc_runtime_Core_A_initializedParams__C                                      
000140b4  xdc_runtime_Core_Module__diagsEnabled__C                                     
000140b8  xdc_runtime_Core_Module__diagsIncluded__C                                    
000140bc  xdc_runtime_Core_Module__diagsMask__C                                        
00014166  xdc_runtime_Core_Module__id__C                                               
0000fe45  xdc_runtime_Core_assignLabel__I                                              
0000f255  xdc_runtime_Core_assignParams__I                                             
0000a2ed  xdc_runtime_Core_constructObject__I                                          
00008d9d  xdc_runtime_Core_createObject__I                                             
0000d65d  xdc_runtime_Core_deleteObject__I                                             
000140c0  xdc_runtime_Error_E_memory__C                                                
000140c4  xdc_runtime_Error_Module__diagsEnabled__C                                    
000140c8  xdc_runtime_Error_Module__diagsIncluded__C                                   
000140cc  xdc_runtime_Error_Module__diagsMask__C                                       
00014168  xdc_runtime_Error_Module__loggerDefined__C                                   
000140d0  xdc_runtime_Error_Module__loggerFxn8__C                                      
000140d4  xdc_runtime_Error_Module__loggerObj__C                                       
20008d0e  xdc_runtime_Error_Module__state__V                                           
000111c1  xdc_runtime_Error_check__E                                                   
0000d1cd  xdc_runtime_Error_getSite__E                                                 
00011805  xdc_runtime_Error_init__E                                                    
0001416a  xdc_runtime_Error_maxDepth__C                                                
0000884d  xdc_runtime_Error_policyDefault__E                                           
000140d8  xdc_runtime_Error_policyFxn__C                                               
000133ff  xdc_runtime_Error_policy__C                                                  
0000d2ad  xdc_runtime_Error_print__E                                                   
000140dc  xdc_runtime_Error_raiseHook__C                                               
00010eb9  xdc_runtime_Error_raiseX__E                                                  
0000f3f9  xdc_runtime_Error_setX__E                                                    
00011811  xdc_runtime_Gate_enterSystem__E                                              
000115d9  xdc_runtime_Gate_leaveSystem__E                                              
000140e0  xdc_runtime_IFilterLogger_Interface__BASE__C                                 
000140e4  xdc_runtime_IGateProvider_Interface__BASE__C                                 
000140e8  xdc_runtime_IHeap_Interface__BASE__C                                         
000140ec  xdc_runtime_ILogger_Interface__BASE__C                                       
000140f0  xdc_runtime_IModule_Interface__BASE__C                                       
000140f4  xdc_runtime_Log_L_error__C                                                   
00011101  xdc_runtime_Main_Module_GateProxy_Handle__label__S                           
00010c21  xdc_runtime_Main_Module_GateProxy_Object__delete__S                          
00011949  xdc_runtime_Main_Module_GateProxy_query__E                                   
00011161  xdc_runtime_Memory_HeapProxy_Handle__label__S                                
00010c41  xdc_runtime_Memory_HeapProxy_Object__delete__S                               
00011873  xdc_runtime_Memory_HeapProxy_alloc__E                                        
0001187d  xdc_runtime_Memory_HeapProxy_free__E                                         
0001416c  xdc_runtime_Memory_Module__id__C                                             
20008d08  xdc_runtime_Memory_Module__state__V                                          
0000d319  xdc_runtime_Memory_alloc__E                                                  
0001181d  xdc_runtime_Memory_calloc__E                                                 
000140f8  xdc_runtime_Memory_defaultHeapInstance__C                                    
000115e9  xdc_runtime_Memory_free__E                                                   
00011829  xdc_runtime_Memory_getMaxDefaultTypeAlign__E                                 
00010ed5  xdc_runtime_Memory_valloc__E                                                 
20008cbc  xdc_runtime_Registry_Module__state__V                                        
00010d21  xdc_runtime_Registry_findById__E                                             
20008cc4  xdc_runtime_Startup_Module__state__V                                         
00000001  xdc_runtime_Startup__EXECFXN__C                                              
00000001  xdc_runtime_Startup__RESETFXN__C                                             
000140fc  xdc_runtime_Startup_execImpl__C                                              
0000ed61  xdc_runtime_Startup_exec__E                                                  
00011473  xdc_runtime_Startup_exec__I                                                  
00013e10  xdc_runtime_Startup_firstFxns__A                                             
00013e54  xdc_runtime_Startup_firstFxns__C                                             
00014100  xdc_runtime_Startup_lastFxns__A                                              
00013e5c  xdc_runtime_Startup_lastFxns__C                                              
00014104  xdc_runtime_Startup_maxPasses__C                                             
0001168f  xdc_runtime_Startup_reset__I                                                 
00011835  xdc_runtime_Startup_rtsDone__E                                               
00013c34  xdc_runtime_Startup_sfxnRts__A                                               
00014108  xdc_runtime_Startup_sfxnRts__C                                               
00013640  xdc_runtime_Startup_sfxnTab__A                                               
0001410c  xdc_runtime_Startup_sfxnTab__C                                               
00009581  xdc_runtime_Startup_startMods__I                                             
20007d28  xdc_runtime_SysMin_Module_State_0_outbuf__A                                  
20008c40  xdc_runtime_SysMin_Module__state__V                                          
00010d41  xdc_runtime_SysMin_Module_startup__E                                         
000102e1  xdc_runtime_SysMin_abort__E                                                  
00014110  xdc_runtime_SysMin_bufSize__C                                                
00010ef1  xdc_runtime_SysMin_exit__E                                                   
0001416e  xdc_runtime_SysMin_flushAtExit__C                                            
0000f43d  xdc_runtime_SysMin_flush__E                                                  
00014114  xdc_runtime_SysMin_outputFunc__C                                             
00010af9  xdc_runtime_SysMin_output__I                                                 
0000fa81  xdc_runtime_SysMin_putch__E                                                  
000115f9  xdc_runtime_SysMin_ready__E                                                  
00011101  xdc_runtime_System_Module_GateProxy_Handle__label__S                         
00010c21  xdc_runtime_System_Module_GateProxy_Object__delete__S                        
0000d23d  xdc_runtime_System_Module_GateProxy_enter__E                                 
0000d525  xdc_runtime_System_Module_GateProxy_leave__E                                 
00011949  xdc_runtime_System_Module_GateProxy_query__E                                 
20008ccc  xdc_runtime_System_Module_State_0_atexitHandlers__A                          
00014118  xdc_runtime_System_Module__gateObj__C                                        
20008cd4  xdc_runtime_System_Module__state__V                                          
0001193f  xdc_runtime_System_Module_startup__E                                         
000102e1  xdc_runtime_System_SupportProxy_abort__E                                     
00010ef1  xdc_runtime_System_SupportProxy_exit__E                                      
0000f43d  xdc_runtime_System_SupportProxy_flush__E                                     
0000fa81  xdc_runtime_System_SupportProxy_putch__E                                     
000115f9  xdc_runtime_System_SupportProxy_ready__E                                     
0001411c  xdc_runtime_System_abortFxn__C                                               
0000e971  xdc_runtime_System_abortStd__E                                               
00010f0d  xdc_runtime_System_abort__E                                                  
00010f63  xdc_runtime_System_aprintf__E                                                
0000e145  xdc_runtime_System_aprintf_va__F                                             
0000fab9  xdc_runtime_System_atexit__E                                                 
00010785  xdc_runtime_System_avprintf__E                                               
00003e31  xdc_runtime_System_doPrint__I                                                
00014120  xdc_runtime_System_exitFxn__C                                                
0000e979  xdc_runtime_System_exitStd__E                                                
000111d9  xdc_runtime_System_exit__E                                                   
00014124  xdc_runtime_System_extendFxn__C                                              
0000cfa9  xdc_runtime_System_formatNum__I                                              
00014128  xdc_runtime_System_maxAtexitHandlers__C                                      
00009679  xdc_runtime_System_printfExtend__I                                           
00010f7d  xdc_runtime_System_printf__E                                                 
0000e495  xdc_runtime_System_printf_va__F                                              
00010311  xdc_runtime_System_processAtExit__E                                          
0001057d  xdc_runtime_System_putchar__I                                                
00010ad5  xdc_runtime_System_vprintf__E                                                
00011609  xdc_runtime_System_vsnprintf__E                                              
00014170  xdc_runtime_Text_charCnt__C                                                  
0001199c  xdc_runtime_Text_charTab__A                                                  
0001412c  xdc_runtime_Text_charTab__C                                                  
000104fd  xdc_runtime_Text_cordText__E                                                 
00014172  xdc_runtime_Text_isLoaded__C                                                 
00014130  xdc_runtime_Text_nameEmpty__C                                                
00014134  xdc_runtime_Text_nameStatic__C                                               
00014138  xdc_runtime_Text_nameUnknown__C                                              
00013d6c  xdc_runtime_Text_nodeTab__A                                                  
0001413c  xdc_runtime_Text_nodeTab__C                                                  
0000fe79  xdc_runtime_Text_printVisFxn__I                                              
0000e551  xdc_runtime_Text_putLab__E                                                   
0000b3ed  xdc_runtime_Text_putMod__E                                                   
0000b6fd  xdc_runtime_Text_putSite__E                                                  
00014174  xdc_runtime_Text_registryModsLastId__C                                       
000111f1  xdc_runtime_Text_ropeText__E                                                 
00014176  xdc_runtime_Text_unnamedModsLastId__C                                        
0000edb1  xdc_runtime_Text_visitRope2__I                                               
00014140  xdc_runtime_Text_visitRopeFxn__C                                             
00011887  xdc_runtime_Text_visitRope__I                                                
0000f481  xdc_runtime_Text_xprintf__I                                                  
0000e149  xdc_runtime_Timestamp_SupportProxy_get32__E                                  
0000cc81  xdc_runtime_Timestamp_SupportProxy_get64__E                                  
000114f9  xdc_runtime_Timestamp_SupportProxy_getFreq__E                                
20008168  z                                                                            
20008008  zData                                                                        


GLOBAL SYMBOLS: SORTED BY Symbol Address 

address   name                                                                         
-------   ----                                                                         
00000000  __ASM__                                                                      
00000000  ti_sysbios_family_arm_m3_Hwi_resetVectors                                    
00000001  xdc_runtime_Startup__EXECFXN__C                                              
00000001  xdc_runtime_Startup__RESETFXN__C                                             
0000003c  SHT$$INIT_ARRAY$$Base                                                        
00000040  SHT$$INIT_ARRAY$$Limit                                                       
0000005e  __ISA__                                                                      
00000071  __PLAT__                                                                     
00000094  __TARG__                                                                     
000000ba  __TRDR__                                                                     
00000300  __STACK_SIZE                                                                 
00000885  __TI_printfi                                                                 
0000117f  PowerMSP432_initPolicy                                                       
000011c1  _ZN4MAES14Agent_PlatformC1EPc                                                
000011c1  _ZN4MAES14Agent_PlatformC2EPc                                                
00001237  _ZN4MAES14Agent_PlatformC1EPcPNS_13USER_DEF_CONDE                            
00001237  _ZN4MAES14Agent_PlatformC2EPcPNS_13USER_DEF_CONDE                            
000012af  _ZN4MAES14Agent_Platform4bootEv                                              
00001365  _ZN4MAES14Agent_Platform10agent_initERNS_5AgentEPFvjjE                       
000013c3  _ZN4MAES14Agent_Platform10agent_initERNS_5AgentEPFvjjEjj                     
0000142b  _ZN4MAES14Agent_Platform12agent_searchEP26ti_sysbios_knl_Task_Object         
0000146b  _ZN4MAES14Agent_Platform10agent_waitEj                                       
00001479  _ZN4MAES14Agent_Platform11agent_yieldEv                                      
00001483  _ZN4MAES14Agent_Platform17get_running_agentEv                                
0000148d  _ZN4MAES14Agent_Platform9get_stateEP26ti_sysbios_knl_Task_Object             
000014d7  _ZN4MAES14Agent_Platform21get_Agent_descriptionEP26ti_sysbios_knl_Task_Object
000014f7  _ZN4MAES14Agent_Platform18get_AP_descriptionEv                               
00001529  _ZN4MAES14Agent_Platform14register_agentEP26ti_sysbios_knl_Task_Object       
000015c9  _ZN4MAES14Agent_Platform16deregister_agentEP26ti_sysbios_knl_Task_Object     
0000167d  _ZN4MAES14Agent_Platform10kill_agentEP26ti_sysbios_knl_Task_Object           
000016d7  _ZN4MAES14Agent_Platform13suspend_agentEP26ti_sysbios_knl_Task_Object        
0000170f  _ZN4MAES14Agent_Platform12resume_agentEP26ti_sysbios_knl_Task_Object         
0000174f  _ZN4MAES14Agent_Platform7restartEP26ti_sysbios_knl_Task_Object               
000017e1  _ZN4MAES42_GLOBAL__N__18_Agent_Platform_cpp_425cc0708AMS_taskEjj             
00001aa5  bmi160_config_running_mode                                                   
000021db  __aeabi_idiv0                                                                
000021dd  _ZN4MAES9Agent_MsgC1Ev                                                       
000021dd  _ZN4MAES9Agent_MsgC2Ev                                                       
000021fd  _ZN4MAES9Agent_Msg12add_receiverEP26ti_sysbios_knl_Task_Object               
00002247  _ZN4MAES9Agent_Msg15remove_receiverEP26ti_sysbios_knl_Task_Object            
000022c3  _ZN4MAES9Agent_Msg18clear_all_receiverEv                                     
000022ef  _ZN4MAES9Agent_Msg12refresh_listEv                                           
0000235d  _ZN4MAES9Agent_Msg7receiveEj                                                 
00002385  _ZN4MAES9Agent_Msg4sendEP26ti_sysbios_knl_Task_Objecti                       
00002469  _ZN4MAES9Agent_Msg4sendEv                                                    
000024b7  _ZN4MAES9Agent_Msg12set_msg_typeENS_8MSG_TYPEE                               
000024cd  _ZN4MAES9Agent_Msg15set_msg_contentEPc                                       
000024df  _ZN4MAES9Agent_Msg7get_msgEv                                                 
000024ef  _ZN4MAES9Agent_Msg12get_msg_typeEv                                           
000024fd  _ZN4MAES9Agent_Msg15get_msg_contentEv                                        
0000250b  _ZN4MAES9Agent_Msg10get_senderEv                                             
00002519  _ZN4MAES9Agent_Msg16get_target_agentEv                                       
00002527  _ZN4MAES9Agent_Msg12registrationEP26ti_sysbios_knl_Task_Object               
000025bd  _ZN4MAES9Agent_Msg14deregistrationEP26ti_sysbios_knl_Task_Object             
00002653  _ZN4MAES9Agent_Msg7suspendEP26ti_sysbios_knl_Task_Object                     
000026e9  _ZN4MAES9Agent_Msg6resumeEP26ti_sysbios_knl_Task_Object                      
0000278b  _ZN4MAES9Agent_Msg4killERP26ti_sysbios_knl_Task_Object                       
00002837  _ZN4MAES9Agent_Msg7restartEv                                                 
00002891  _ZN4MAES9Agent_Msg12isRegisteredEP26ti_sysbios_knl_Task_Object               
000028c5  _ZN4MAES9Agent_Msg11get_mailboxEP26ti_sysbios_knl_Task_Object                
000028f9  powf                                                                         
00002e81  ti_sysbios_family_arm_m3_Hwi_excDumpRegs__I                                  
000032b1  _ZN20supporting_functions4initEv                                             
000036d1  bmi160_read_fifo_header_data                                                 
00003a8d  bmi160_read_bmm150_mag_trim                                                  
00003e31  xdc_runtime_System_doPrint__I                                                
0000417d  HOSTwrite                                                                    
000041c9  HOSTunlink                                                                   
00004201  HOSTtime64                                                                   
0000424f  HOSTtime                                                                     
00004289  HOSTrename                                                                   
000042e7  HOSTread                                                                     
00004333  HOSTopen                                                                     
00004385  HOSTlseek                                                                    
000043e1  HOSTgetenv                                                                   
0000441f  HOSTclose                                                                    
00004457  HOSTclock                                                                    
000044a1  ti_sysbios_knl_Semaphore_pend__E                                             
000047b5  arm_mat_inverse_f32                                                          
00004a61  ti_sysbios_knl_Task_Instance_finalize__E                                     
00004cd5  Power_sleep                                                                  
00004f39  UARTMSP432_open                                                              
00005199  ti_sysbios_heaps_HeapMem_free__E                                             
000053f1  ti_sysbios_heaps_HeapMem_alloc__E                                            
00005639  bmi160_bmm150_mag_interface_init                                             
0000584d  CPU_wfi                                                                      
00005851  ti_sysbios_knl_Task_sleep__E                                                 
00005a51  _ZN20supporting_functions14updateJacobianEv                                  
00005c4d  HwiP_disable                                                                 
00005c51  ti_sysbios_family_arm_m3_Hwi_excHandlerMax__I                                
00005e4d  __aeabi_uldivmod                                                             
00006041  ti_sysbios_knl_Task_Instance_init__E                                         
00006235  bmi160_set_bmm150_mag_presetmode                                             
00006421  _ZN13kalman_filter6actionEv                                                  
000065e9  bmi160_accel_foc_trigger_xyz                                                 
000067a1  __aeabi_dsub                                                                 
000067ab  __aeabi_dadd                                                                 
00006957  ti_sysbios_BIOS_nullFunc__I                                                  
00006959  ti_sysbios_gates_GateMutexPri_enter__E                                       
00006ca9  _Z7uartFxnjj                                                                 
00006e45  _ZN20supporting_functions11getRotationEv                                     
00006fd9  ti_sysbios_knl_Task_setPri__E                                                
00007161  I2CMSP432_open                                                               
000072d9  ti_sysbios_family_arm_m3_Hwi_excBusFault__I                                  
0000744d  sqrt                                                                         
0000744d  sqrtl                                                                        
000075bd  bmi160_set_intr_enable_0                                                     
00007729  ti_sysbios_family_arm_m3_Hwi_excUsageFault__I                                
0000788d  I2C_setSlaveAddress                                                          
00007891  ti_sysbios_knl_Mailbox_Instance_init__E                                      
000079e9  ti_sysbios_family_arm_m3_Hwi_excMemFault__I                                  
00007b31  GPIO_setConfig                                                               
00007c71  ti_sysbios_knl_Semaphore_post__E                                             
00007db1  ti_sysbios_heaps_HeapMem_Instance_init__E                                    
00007eed  List_head                                                                    
00007ef1  ti_sysbios_knl_Clock_workFunc__E                                             
0000802d  List_next                                                                    
00008031  ti_sysbios_family_arm_m3_Hwi_dispatchC__I                                    
00008169  ti_uia_loggers_LoggerStopMode_writeMemoryRange__E                            
000082a1  __aeabi_ddiv                                                                 
000083d7  ti_uia_loggers_LoggerStopMode_setFilterLevel__E                              
000083d9  bmi160_set_foc_gyro_enable                                                   
000084f5  PowerMSP432_getNumPerfLevels                                                 
000084f9  ti_sysbios_knl_Clock_Instance_init__E                                        
00008615  __abort_execution                                                            
00008619  ti_sysbios_knl_Swi_run__I                                                    
00008735  I2CMSP432_hwiIntFxn                                                          
0000884d  xdc_runtime_Error_policyDefault__E                                           
00008965  ti_sysbios_BIOS_RtsGateProxy_enter__E                                        
00008969  ti_sysbios_knl_Task_schedule__I                                              
00008a79  _ZN20supporting_functions16get_measurementsEv                                
00008b85  bmi160_bmm150_mag_set_power_mode                                             
00008c91  ti_uia_loggers_LoggerStopMode_write8__E                                      
00008d9d  xdc_runtime_Core_createObject__I                                             
00008e9d  __aeabi_dmul                                                                 
00008f99  ldexp                                                                        
00008f99  ldexpl                                                                       
00008f99  scalbn                                                                       
00008f99  scalbnl                                                                      
00009095  ti_sysbios_BIOS_RtsGateProxy_leave__E                                        
00009099  ti_sysbios_knl_Task_postInit__I                                              
00009195  ti_sysbios_family_arm_m3_Hwi_destruct                                        
00009199  ti_sysbios_knl_Task_startCore__E                                             
00009295  _ZN14sensor_control5setupEv                                                  
0000938d  _ZN20supporting_functions7updateQEv                                          
00009485  ti_sysbios_family_arm_m3_TaskSupport_Module__startupDone__S                  
00009485  ti_sysbios_knl_Task_SupportProxy_Module__startupDone__S                      
00009489  ti_sysbios_utils_Load_updateThreadContexts__E                                
00009581  xdc_runtime_Startup_startMods__I                                             
00009679  xdc_runtime_System_printfExtend__I                                           
00009771  ti_uia_loggers_LoggerStopMode_write4__E                                      
00009955  _ZN4MAES17Generic_BehaviourC1Ev                                              
00009955  _ZN4MAES17Generic_BehaviourC2Ev                                              
0000996b  _ZN4MAES17Generic_Behaviour4doneEv                                           
00009977  _ZN4MAES17Generic_Behaviour17failure_detectionEv                             
00009983  _ZN4MAES17Generic_Behaviour22failure_identificationEv                        
0000998d  _ZN4MAES17Generic_Behaviour16failure_recoveryEv                              
00009997  _ZN4MAES17Generic_Behaviour5setupEv                                          
000099a1  _ZN4MAES17Generic_Behaviour7executeEv                                        
000099f5  _ZN4MAES16OneShotBehaviourC1Ev                                               
000099f5  _ZN4MAES16OneShotBehaviourC2Ev                                               
00009a09  _ZN4MAES16OneShotBehaviour4doneEv                                            
00009a15  _ZN4MAES15CyclicBehaviourC1Ev                                                
00009a15  _ZN4MAES15CyclicBehaviourC2Ev                                                
00009a29  _ZN4MAES15CyclicBehaviour4doneEv                                             
00009a41  ti_sysbios_family_arm_m3_Hwi_dispatch__I                                     
00009b2d  arm_mat_mult_f32                                                             
00009c15  ti_uia_loggers_LoggerStopMode_write1__E                                      
00009cfd  ti_uia_loggers_LoggerStopMode_write2__E                                      
00009de5  CS_initClockSignal                                                           
00009fa1  ti_uia_loggers_LoggerStopMode_write0__E                                      
0000a079  bmi160_set_bmm150_mag_and_secondary_if_power_mode                            
0000a14d  ldexpf                                                                       
0000a14d  scalbnf                                                                      
0000a221  _ZN20supporting_functions9updatePhiEv                                        
0000a2ed  xdc_runtime_Core_constructObject__I                                          
0000a3b9  ti_sysbios_knl_Task_exit__E                                                  
0000a481  _ZN13kalman_filter5setupEv                                                   
0000a545  ti_sysbios_heaps_HeapMem_Module_GateProxy_enter__E                           
0000a549  ti_sysbios_utils_Load_logLoads__I                                            
0000a60d  _ZSt21__gen_dummy_typeinfosv                                                 
0000a615  _ZNSt9type_infoD1Ev                                                          
0000a615  _ZNSt9type_infoD2Ev                                                          
0000a617  _ZNSt9type_infoD0Ev                                                          
0000a61f  _ZNKSt9type_info4nameEv                                                      
0000a623  _ZNKSt9type_infoneERKS_                                                      
0000a639  _ZNKSt9type_infoeqERKS_                                                      
0000a64f  _ZNKSt9type_info6beforeERKS_                                                 
0000a65d  _ZN10__cxxabiv129__pointer_to_member_type_infoD1Ev                           
0000a65d  _ZN10__cxxabiv129__pointer_to_member_type_infoD2Ev                           
0000a65f  _ZN10__cxxabiv129__pointer_to_member_type_infoD0Ev                           
0000a667  _ZN10__cxxabiv123__fundamental_type_infoD1Ev                                 
0000a667  _ZN10__cxxabiv123__fundamental_type_infoD2Ev                                 
0000a669  _ZN10__cxxabiv123__fundamental_type_infoD0Ev                                 
0000a671  _ZN10__cxxabiv121__vmi_class_type_infoD1Ev                                   
0000a671  _ZN10__cxxabiv121__vmi_class_type_infoD2Ev                                   
0000a673  _ZN10__cxxabiv121__vmi_class_type_infoD0Ev                                   
0000a67b  _ZN10__cxxabiv120__si_class_type_infoD1Ev                                    
0000a67b  _ZN10__cxxabiv120__si_class_type_infoD2Ev                                    
0000a67d  _ZN10__cxxabiv120__si_class_type_infoD0Ev                                    
0000a685  _ZN10__cxxabiv120__function_type_infoD1Ev                                    
0000a685  _ZN10__cxxabiv120__function_type_infoD2Ev                                    
0000a687  _ZN10__cxxabiv120__function_type_infoD0Ev                                    
0000a68f  _ZN10__cxxabiv119__pointer_type_infoD1Ev                                     
0000a68f  _ZN10__cxxabiv119__pointer_type_infoD2Ev                                     
0000a691  _ZN10__cxxabiv119__pointer_type_infoD0Ev                                     
0000a699  _ZN10__cxxabiv117__pbase_type_infoD1Ev                                       
0000a699  _ZN10__cxxabiv117__pbase_type_infoD2Ev                                       
0000a69b  _ZN10__cxxabiv117__pbase_type_infoD0Ev                                       
0000a6a3  _ZN10__cxxabiv117__class_type_infoD1Ev                                       
0000a6a3  _ZN10__cxxabiv117__class_type_infoD2Ev                                       
0000a6a5  _ZN10__cxxabiv117__class_type_infoD0Ev                                       
0000a6ad  _ZN10__cxxabiv117__array_type_infoD1Ev                                       
0000a6ad  _ZN10__cxxabiv117__array_type_infoD2Ev                                       
0000a6af  _ZN10__cxxabiv117__array_type_infoD0Ev                                       
0000a6b7  _ZN10__cxxabiv116__enum_type_infoD1Ev                                        
0000a6b7  _ZN10__cxxabiv116__enum_type_infoD2Ev                                        
0000a6b9  _ZN10__cxxabiv116__enum_type_infoD0Ev                                        
0000a6c9  ti_sysbios_family_arm_m3_Hwi_excDebugMon__I                                  
0000a785  ti_sysbios_heaps_HeapMem_Module_GateProxy_leave__E                           
0000a789  ti_sysbios_family_arm_m3_Hwi_excHardFault__I                                 
0000a845  bmi160_set_intr_enable_2                                                     
0000a8fd  ti_sysbios_knl_Clock_TimerProxy_getMaxTicks__E                               
0000a901  ti_sysbios_knl_Task_unblockI__E                                              
0000a9b9  _ZN20supporting_functions11normalizingEv                                     
0000aa6d  ti_sysbios_knl_Clock_destruct                                                
0000aa71  ti_sysbios_gates_GateMutex_enter__E                                          
0000ab25  ti_sysbios_knl_Mailbox_delete                                                
0000ab29  ti_sysbios_knl_Task_checkStacks__E                                           
0000abdd  UARTMSP432_readPolling                                                       
0000ac8d  _ZN20supporting_functions7updatefEv                                          
0000aded  ti_sysbios_knl_Queue_destruct                                                
0000adf1  ti_sysbios_knl_Task_yield__E                                                 
0000aea1  ti_sysbios_utils_Load_idleFxn__E                                             
0000af51  ti_sysbios_utils_Load_updateLoads__E                                         
0000af51  ti_sysbios_utils_Load_update__E                                              
0000b001  ti_sysbios_knl_Swi_post__E                                                   
0000b0ad  ti_sysbios_knl_Semaphore_destruct                                            
0000b0b1  ti_sysbios_family_arm_msp432_Timer_periodicStub__E                           
0000b159  ti_sysbios_knl_Task_blockI__E                                                
0000b201  UARTMSP432_control                                                           
0000b2a5  ti_sysbios_knl_Task_delete                                                   
0000b2a9  ti_sysbios_knl_Clock_Instance_finalize__E                                    
0000b34d  __TI_auto_init                                                               
0000b3ed  xdc_runtime_Text_putMod__E                                                   
0000b48d  _ZN20supporting_functions7updateREv                                          
0000b5c5  __aeabi_memcpy                                                               
0000b5c5  __aeabi_memcpy4                                                              
0000b5c5  __aeabi_memcpy8                                                              
0000b5c5  memcpy                                                                       
0000b661  ti_sysbios_knl_Semaphore_Instance_init__E                                    
0000b6fd  xdc_runtime_Text_putSite__E                                                  
0000b797  ti_uia_loggers_LoggerStopMode_setPriority__E                                 
0000b799  __sti___8_main_cpp_6977f587                                                  
0000b831  main                                                                         
0000b8c9  ti_sysbios_knl_Mailbox_post__E                                               
0000b961  UART_initModule                                                              
0000b9f5  arm_mat_add_f32                                                              
0000ba89  arm_mat_sub_f32                                                              
0000bb1d  snprintf                                                                     
0000bbb1  ti_sysbios_family_arm_m3_Hwi_Instance_init__E                                
0000bc45  ti_uia_loggers_LoggerStopMode_getContents__E                                 
0000bc49  ti_sysbios_family_arm_m3_Hwi_initNVIC__E                                     
0000bcdd  I2CMSP432_cancel                                                             
0000bd71  bmi160_set_intr_fifo_wm                                                      
0000be01  bmi160_set_intr_level                                                        
0000be91  bmi160_set_output_enable                                                     
0000bf21  ti_sysbios_knl_Task_Module_startup__E                                        
0000bfb1  ti_sysbios_utils_Load_startup__E                                             
0000c041  ti_uia_loggers_LoggerStopMode_initQueueDescriptor__E                         
0000c0d1  I2CMSP432_transfer                                                           
0000c15d  ti_sysbios_family_arm_m3_TaskSupport_buildTaskStack                          
0000c1e9  ti_sysbios_knl_Mailbox_pend__E                                               
0000c275  UARTMSP432_close                                                             
0000c301  _ZN4MAES5AgentC1EPciS1_i                                                     
0000c301  _ZN4MAES5AgentC2EPciS1_i                                                     
0000c36b  _ZN4MAES5Agent3AIDEv                                                         
0000c379  _ZN4MAES5AgentC1Ev                                                           
0000c379  _ZN4MAES5AgentC2Ev                                                           
0000c389  ti_sysbios_family_arm_msp432_Timer_Module_startup__E                         
0000c411  ti_sysbios_knl_Mailbox_Module_startup__E                                     
0000c499  __aeabi_cdcmpeq                                                              
0000c499  __aeabi_cdcmple                                                              
0000c51f  __aeabi_cdrcmple                                                             
0000c629  ti_sysbios_family_arm_m3_Hwi_postInit__I                                     
0000c7b5  bmi160_read_mag_xyzr                                                         
0000c835  ti_uia_loggers_LoggerStopMode_getFilterLevel__E                              
0000c839  ti_sysbios_family_arm_msp432_Timer_startup__E                                
0000c839  ti_sysbios_knl_Clock_TimerProxy_startup__E                                   
0000c8b9  PCM_gotoLPM3                                                                 
0000c935  UARTMSP432_write                                                             
0000ca29  __aeabi_memclr                                                               
0000ca29  __aeabi_memclr4                                                              
0000ca29  __aeabi_memclr8                                                              
0000ca2b  __aeabi_memset                                                               
0000ca2b  __aeabi_memset4                                                              
0000ca2b  __aeabi_memset8                                                              
0000ca31  memset                                                                       
0000caa3  arm_mat_scale_f32                                                            
0000cb1d  bmi160_set_gyro_output_data_rate                                             
0000cb95  _ZN14sensor_control6actionEv                                                 
0000cc7d  ti_uia_loggers_LoggerStopMode_getInstanceId__E                               
0000cc81  ti_sysbios_family_arm_m3_TimestampProvider_get64__E                          
0000cc81  xdc_runtime_Timestamp_SupportProxy_get64__E                                  
0000ccf5  ti_uia_loggers_LoggerStopMode_getMaxLength__E                                
0000ccf9  ti_sysbios_knl_Clock_start__E                                                
0000cd6d  ti_uia_runtime_QueueDescriptor_addToList__E                                  
0000cde1  arm_mat_trans_f32                                                            
0000ce55  bmi160_set_accel_range                                                       
0000cec5  ti_uia_loggers_LoggerStopMode_getPriority__E                                 
0000cec9  ti_sysbios_knl_Mailbox_Instance_finalize__E                                  
0000cf39  __aeabi_d2f                                                                  
0000cfa9  xdc_runtime_System_formatNum__I                                              
0000d019  bmi160_bmm150_mag_compensate_X                                               
0000d085  bmi160_bmm150_mag_compensate_Y                                               
0000d0f1  bmi160_bmm150_mag_wakeup                                                     
0000d15d  ti_uia_loggers_LoggerStopMode_getTransferType__E                             
0000d161  ti_sysbios_gates_GateMutexPri_leave__E                                       
0000d1cd  xdc_runtime_Error_getSite__E                                                 
0000d1d1  ti_sysbios_knl_Swi_restoreHwi__E                                             
0000d23d  xdc_runtime_System_Module_GateProxy_enter__E                                 
0000d241  ti_sysbios_utils_Load_taskCreateHook__E                                      
0000d2ad  xdc_runtime_Error_print__E                                                   
0000d319  xdc_runtime_Memory_alloc__E                                                  
0000d385  bmi160_get_gyro_offset_compensation_xaxis                                    
0000d3ed  __TI_decompress_lzss                                                         
0000d4bd  __TI_writemsg                                                                
0000d4eb  C$$IO$$                                                                      
0000d4ef  __TI_readmsg                                                                 
0000d525  xdc_runtime_System_Module_GateProxy_leave__E                                 
0000d529  ti_sysbios_utils_Load_addTask__E                                             
0000d591  I2CMSP432_close                                                              
0000d5f7  ti_uia_loggers_LoggerStopMode_flush__E                                       
0000d65d  xdc_runtime_Core_deleteObject__I                                             
0000d6c3  UARTMSP432_writePolling                                                      
0000d729  bmi160_interrupt_configuration                                               
0000d78d  bmi160_set_accel_bw                                                          
0000d7f1  bmi160_set_accel_output_data_rate                                            
0000d855  bmi160_set_fifo_accel_enable                                                 
0000d8b9  bmi160_set_fifo_gyro_enable                                                  
0000d91d  bmi160_set_fifo_header_enable                                                
0000d981  bmi160_set_fifo_mag_enable                                                   
0000d9e5  bmi160_set_fifo_stop_on_full                                                 
0000da49  bmi160_set_fifo_time_enable                                                  
0000daad  bmi160_set_gyro_bw                                                           
0000db11  bmi160_set_gyro_range                                                        
0000db75  bmi160_set_gyro_sleep_state                                                  
0000dbd9  bmi160_set_gyro_sleep_trigger                                                
0000dc3d  bmi160_set_gyro_wakeup_intr                                                  
0000dca1  bmi160_set_gyro_wakeup_trigger                                               
0000dd05  bmi160_set_if_mode                                                           
0000dd69  bmi160_set_mag_output_data_rate                                              
0000ddcd  bmi160_set_paging_enable                                                     
0000de31  bmi160_set_pullup_configuration                                              
0000de95  bmi160_set_target_page                                                       
0000def9  frexp                                                                        
0000def9  frexpl                                                                       
0000df5d  ti_sysbios_knl_Mailbox_create                                                
0000dfc1  HwiP_create                                                                  
0000e025  bmi160_get_gyro_offset_compensation_yaxis                                    
0000e085  bmi160_get_gyro_offset_compensation_zaxis                                    
0000e0e5  bmi160_set_mag_manual_enable                                                 
0000e145  xdc_runtime_System_aprintf_va__F                                             
0000e149  ti_sysbios_family_arm_m3_TimestampProvider_get32__E                          
0000e149  xdc_runtime_Timestamp_SupportProxy_get32__E                                  
0000e1a9  ti_sysbios_knl_Clock_logTick__E                                              
0000e209  ti_sysbios_utils_Load_logCPULoad__I                                          
0000e269  ti_sysbios_utils_Load_updateCurrentThreadTime__E                             
0000e2c9  GPIO_init                                                                    
0000e2c9  MSP_EXP432P401R_initGPIO                                                     
0000e325  bmi160_bmm150_mag_compensate_Z                                               
0000e381  bmi160_set_accel_offset_enable                                               
0000e3dd  bmi160_set_gyro_offset_enable                                                
0000e439  bmi160_set_i2c_device_addr                                                   
0000e495  xdc_runtime_System_printf_va__F                                              
0000e499  ti_sysbios_knl_Swi_schedule__I                                               
0000e4f5  ti_sysbios_knl_Task_create                                                   
0000e551  xdc_runtime_Text_putLab__E                                                   
0000e5ad  ClockP_create                                                                
0000e607  SemaphoreP_create                                                            
0000e661  bmi160_read_accel_xyz                                                        
0000e6b9  bmi160_read_gyro_xyz                                                         
0000e711  _c_int00                                                                     
0000e769  ti_sysbios_family_arm_m3_Hwi_construct                                       
0000e7c1  ti_sysbios_family_arm_m3_Hwi_initStacks__E                                   
0000e819  ti_sysbios_family_arm_m3_Timer_setPeriod__E                                  
0000e871  GPIO_hwiIntFxn                                                               
0000e8c5  GPIO_setCallback                                                             
0000e96d  C$$EXIT                                                                      
0000e971  abort                                                                        
0000e971  xdc_runtime_System_abortStd__E                                               
0000e979  exit                                                                         
0000e979  xdc_runtime_System_exitStd__E                                                
0000e9c1  ltoa                                                                         
0000ea19  ti_sysbios_family_arm_m3_Timer_start__E                                      
0000ea71  ti_sysbios_family_arm_msp432_Timer_initDevice__I                             
0000eac9  ti_sysbios_family_arm_msp432_init_Boot_configureClocksHigh                   
0000eb21  ti_sysbios_utils_Load_taskSwitchHook__E                                      
0000eb75  xdc_runtime_Assert_raise__I                                                  
0000ebc9  UARTMSP432_writeCancel                                                       
0000ec1d  GPIO_write                                                                   
0000ec6d  PCM_shutdownDevice                                                           
0000ecbd  bmi160_i2c_bus_write                                                         
0000ed11  ti_sysbios_family_arm_m3_Hwi_Module_startup__E                               
0000ed61  xdc_runtime_Startup_exec__E                                                  
0000edb1  xdc_runtime_Text_visitRope2__I                                               
0000ee01  atoi                                                                         
0000ee4d  copy_in                                                                      
0000ee99  ti_sysbios_heaps_HeapMem_getStats__E                                         
0000eee9  ti_sysbios_knl_Swi_runLoop__I                                                
0000ef39  ti_sysbios_knl_Task_allBlockedFunction__I                                    
0000ef85  ti_uia_loggers_LoggerStopMode_Module_startup__E                              
0000efd1  _ZN4MAES13USER_DEF_COND13register_condEv                                     
0000efdd  _ZN4MAES13USER_DEF_COND15deregister_condEv                                   
0000efe9  _ZN4MAES13USER_DEF_COND12suspend_condEv                                      
0000eff5  _ZN4MAES13USER_DEF_COND9kill_condEv                                          
0000f001  _ZN4MAES13USER_DEF_COND11resume_condEv                                       
0000f00d  _ZN4MAES13USER_DEF_COND12restart_condEv                                      
0000f019  __aeabi_d2iz                                                                 
0000f061  ti_sysbios_family_arm_m3_Hwi_disableInterrupt__E                             
0000f061  ti_sysbios_hal_Hwi_HwiProxy_disableInterrupt__E                              
0000f0a9  ti_sysbios_family_arm_m3_Hwi_enableInterrupt__E                              
0000f0a9  ti_sysbios_hal_Hwi_HwiProxy_enableInterrupt__E                               
0000f0f1  ti_sysbios_family_arm_m3_Hwi_excReserved__I                                  
0000f139  ti_sysbios_family_arm_m3_Timer_initDevice__I                                 
0000f181  ti_sysbios_utils_Load_taskDeleteHook__E                                      
0000f1c9  RingBuf_put                                                                  
0000f255  xdc_runtime_Core_assignParams__I                                             
0000f29d  MSP_EXP432P401R_initGeneral                                                  
0000f29d  Power_init                                                                   
0000f2e1  ti_sysbios_family_arm_m3_Hwi_getStackInfo__E                                 
0000f2e1  ti_sysbios_hal_Hwi_HwiProxy_getStackInfo__E                                  
0000f329  ti_sysbios_knl_Mailbox_postInit__I                                           
0000f371  ti_sysbios_utils_Load_removeTask__E                                          
0000f3b5  ti_uia_loggers_LoggerStopMode_initBuffer__I                                  
0000f3f9  xdc_runtime_Error_setX__E                                                    
0000f43d  xdc_runtime_SysMin_flush__E                                                  
0000f43d  xdc_runtime_System_SupportProxy_flush__E                                     
0000f481  xdc_runtime_Text_xprintf__I                                                  
0000f4c5  UARTMSP432_hwiIntFxn                                                         
0000f549  FlashCtl_disableReadBuffering                                                
0000f589  I2C_masterSendMultiByteFinish                                                
0000f5c9  RingBuf_get                                                                  
0000f609  UARTMSP432_read                                                              
0000f649  bmi160_init                                                                  
0000f6c9  __aeabi_uidiv                                                                
0000f6c9  __aeabi_uidivmod                                                             
0000f709  ti_sysbios_family_arm_m3_Timer_Module_startup__E                             
0000f749  I2C_initMaster                                                               
0000f787  bmi160_bmm150_mag_compensate_xyz                                             
0000f7c5  PowerMSP432_sleepPolicy                                                      
0000f801  ti_sysbios_family_arm_m3_Hwi_excSvCall__I                                    
0000f841  ti_sysbios_heaps_HeapMem_init__I                                             
0000f881  ti_sysbios_knl_Swi_restore__E                                                
0000f8f9  I2C_init                                                                     
0000f931  UART_init                                                                    
0000f9a1  __aeabi_f2d                                                                  
0000f9d9  ti_sysbios_BIOS_startFunc__I                                                 
0000fa11  ti_sysbios_family_arm_m3_Hwi_excNoIsr__I                                     
0000fa49  ti_sysbios_knl_Task_processVitalTaskFlag__I                                  
0000fa81  xdc_runtime_SysMin_putch__E                                                  
0000fa81  xdc_runtime_System_SupportProxy_putch__E                                     
0000fab9  xdc_runtime_System_atexit__E                                                 
0000faf1  UARTMSP432_readCancel                                                        
0000fb5d  FlashCtl_enableReadBuffering                                                 
0000fb91  bmi160_get_foc_rdy                                                           
0000fbc5  bmi160_get_if_mode                                                           
0000fbf9  bmi160_get_mag_manual_enable                                                 
0000fc2d  bmi160_get_mag_power_mode_stat                                               
0000fc61  bmi160_get_paging_enable                                                     
0000fc95  bmi160_get_pullup_configuration                                              
0000fcc9  bmi160_get_target_page                                                       
0000fd01  ti_sysbios_family_arm_m3_Hwi_Instance_finalize__E                            
0000fd39  ti_sysbios_family_arm_m3_Hwi_excNmi__I                                       
0000fd71  ti_sysbios_family_arm_m3_Timer_periodicStub__I                               
0000fda9  ti_sysbios_hal_Hwi_checkStack                                                
0000fddd  ti_sysbios_knl_Clock_construct                                               
0000fe11  ti_uia_loggers_LoggerStopMode_reset__E                                       
0000fe45  xdc_runtime_Core_assignLabel__I                                              
0000fe79  xdc_runtime_Text_printVisFxn__I                                              
0000feb1  ti_sysbios_hal_Hwi_initStack                                                 
0000fee3  I2CMSP432_control                                                            
0000fee9  ti_sysbios_knl_Semaphore_pendTimeout__I                                      
0000ff1d  GPIO_getEnabledInterruptStatus                                               
0000ff4d  GPIO_setAsInputPinWithPullDownResistor                                       
0000ff7d  GPIO_setAsInputPinWithPullUpResistor                                         
0000ffad  I2C_open                                                                     
0000ffdd  UART_open                                                                    
0001000d  bmi160_get_accel_offset_compensation_xaxis                                   
0001003d  bmi160_get_accel_offset_compensation_yaxis                                   
0001006d  bmi160_get_accel_offset_compensation_zaxis                                   
0001009d  bmi160_i2c_burst_read                                                        
000100cd  bmi160_i2c_bus_read                                                          
000100fd  i2c_routine                                                                  
0001012d  ti_sysbios_BIOS_atExitFunc__I                                                
00010161  ti_sysbios_family_arm_m3_TaskSupport_start__E                                
00010161  ti_sysbios_knl_Task_SupportProxy_start__E                                    
00010191  ti_sysbios_gates_GateHwi_Object__create__S                                   
000101c1  ti_sysbios_gates_GateMutexPri_Object__create__S                              
000101f1  ti_sysbios_gates_GateMutexPri_create                                         
00010221  ti_sysbios_gates_GateMutex_Object__create__S                                 
00010251  ti_sysbios_heaps_HeapMem_Object__create__S                                   
00010281  ti_sysbios_knl_Semaphore_construct                                           
000102b1  ti_uia_loggers_LoggerStopMode_Object__create__S                              
000102e1  xdc_runtime_SysMin_abort__E                                                  
000102e1  xdc_runtime_System_SupportProxy_abort__E                                     
00010311  xdc_runtime_System_processAtExit__E                                          
00010341  __aeabi_i2d                                                                  
00010371  GPIO_setAsInputPin                                                           
0001039d  MSP_EXP432P401R_initUART                                                     
000103c9  PCM_getCoreVoltageLevel                                                      
000103f5  PowerMSP432_updateFreqs                                                      
00010421  Power_releaseConstraint                                                      
0001044d  Power_setConstraint                                                          
00010479  ti_sysbios_knl_Clock_doTick__I                                               
000104a5  ti_sysbios_knl_Queue_construct                                               
000104d1  ti_sysbios_knl_Task_restore__E                                               
000104fd  xdc_runtime_Text_cordText__E                                                 
00010529  PCM_getPowerMode                                                             
0001057d  xdc_runtime_System_putchar__I                                                
000105a9  FlashCtl_setWaitState                                                        
000105d1  PCM_gotoLPM0                                                                 
000105f9  bmi160_read_reg                                                              
00010621  bmi160_set_command_register                                                  
00010649  bmi160_set_fifo_wm                                                           
00010671  bmi160_set_mag_read_addr                                                     
00010699  bmi160_set_mag_write_addr                                                    
000106c1  bmi160_set_mag_write_data                                                    
000106e9  sqrtf                                                                        
00010711  ti_sysbios_knl_Swi_Module_startup__E                                         
00010739  List_put                                                                     
0001075f  ti_sysbios_family_arm_m3_Hwi_pendSV__I                                       
00010783  ti_sysbios_family_arm_m3_Hwi_return                                          
00010785  xdc_runtime_System_avprintf__E                                               
000107ad  CS_setDCOCenteredFrequency                                                   
000107d1  GPIO_setAsOutputPin                                                          
000107f5  I2C_masterSendMultiByteNext                                                  
00010819  RTC_C_holdClock                                                              
0001083d  RTC_C_startClock                                                             
00010861  UART_disableInterrupt                                                        
00010885  UART_receiveData                                                             
000108a9  UART_transmitData                                                            
000108cd  _Z6kalmanjj                                                                  
000108f1  bmi160_fifo_data                                                             
00010915  bmi160_initialize_sensor                                                     
00010939  bmi160_write_reg                                                             
0001095d  ti_sysbios_BIOS_errorRaiseHook__I                                            
00010981  ti_sysbios_BIOS_registerRTSLock__I                                           
000109a5  ti_sysbios_BIOS_removeRTSLock__I                                             
000109c9  ti_sysbios_family_arm_m3_Hwi_doTaskRestore__I                                
000109f1  ti_sysbios_family_arm_m3_Timer_startup__E                                    
00010a19  ti_sysbios_family_arm_msp432_ClockFreqs_setFrequency__E                      
00010a3d  ti_sysbios_gates_GateMutexPri_Object__delete__S                              
00010a61  ti_sysbios_BIOS_RtsGateProxy_Object__delete__S                               
00010a61  ti_sysbios_gates_GateMutex_Object__delete__S                                 
00010a61  ti_sysbios_heaps_HeapMem_Module_GateProxy_Object__delete__S                  
00010a89  ti_sysbios_knl_Clock_Module_startup__E                                       
00010ab1  ti_sysbios_knl_Task_getMode__E                                               
00010ad5  xdc_runtime_System_vprintf__E                                                
00010af9  xdc_runtime_SysMin_output__I                                                 
00010b1d  GPIO_interruptEdgeSelect                                                     
00010b3d  PowerMSP432_getFreqs                                                         
00010b5d  Power_unregisterNotify                                                       
00010b7d  RingBuf_peek                                                                 
00010b9d  ti_sysbios_BIOS_rtsLock__I                                                   
00010bbd  ti_sysbios_family_arm_m3_Hwi_excHandlerAsm__I                                
00010be1  ti_sysbios_family_arm_m3_Hwi_excHandler__I                                   
00010c01  ti_sysbios_family_arm_m3_TimestampProvider_Module_startup__E                 
00010c21  ti_sysbios_gates_GateHwi_Object__delete__S                                   
00010c21  xdc_runtime_Main_Module_GateProxy_Object__delete__S                          
00010c21  xdc_runtime_System_Module_GateProxy_Object__delete__S                        
00010c41  ti_sysbios_heaps_HeapMem_Object__delete__S                                   
00010c41  xdc_runtime_Memory_HeapProxy_Object__delete__S                               
00010c61  ti_sysbios_knl_Clock_Object__destruct__S                                     
00010c81  ti_sysbios_knl_Idle_run__E                                                   
00010ca1  ti_sysbios_knl_Mailbox_Object__delete__S                                     
00010cc1  ti_sysbios_knl_Semaphore_Object__destruct__S                                 
00010ce1  ti_sysbios_knl_Task_Object__delete__S                                        
00010d01  ti_uia_loggers_LoggerStopMode_Object__delete__S                              
00010d21  xdc_runtime_Registry_findById__E                                             
00010d41  xdc_runtime_SysMin_Module_startup__E                                         
00010d61  ti_sysbios_family_xxx_Hwi_switchAndRunFunc                                   
00010d81  MSP_EXP432P401R_initI2C                                                      
00010d9d  PCM_enableRudeMode                                                           
00010db9  Power_registerNotify                                                         
00010dd5  _Z6sensorjj                                                                  
00010df1  memccpy                                                                      
00010e0d  ti_sysbios_family_arm_m3_Hwi_Object__destruct__S                             
00010e29  ti_sysbios_gates_GateMutexPri_Instance_init__E                               
00010e49  ti_sysbios_gates_GateMutex_Instance_init__E                                  
00010e65  ti_sysbios_knl_Queue_Object__destruct__S                                     
00010e81  ti_sysbios_knl_Task_enter__I                                                 
00010e9d  ti_uia_loggers_LoggerStopMode_Instance_init__E                               
00010eb9  xdc_runtime_Error_raiseX__E                                                  
00010ed5  xdc_runtime_Memory_valloc__E                                                 
00010ef1  xdc_runtime_SysMin_exit__E                                                   
00010ef1  xdc_runtime_System_SupportProxy_exit__E                                      
00010f0d  xdc_runtime_System_abort__E                                                  
00010f29  List_remove                                                                  
00010f43  I2C_getEnabledInterruptStatus                                                
00010f49  ti_sysbios_knl_Task_sleepTimeout__I                                          
00010f63  xdc_runtime_System_aprintf__E                                                
00010f7d  xdc_runtime_System_printf__E                                                 
00010f99  GPIO_clearInterruptFlag                                                      
00010fb1  GPIO_setDriveStrengthLow                                                     
00010fc9  GPIO_setOutputLowOnPin                                                       
00010fe1  I2C_masterIsStartSent                                                        
00010ff9  UART_Params_init                                                             
00011011  WDT_A_holdTimer                                                              
00011029  _ZN4MAES13USER_DEF_CONDC1Ev                                                  
00011041  ff_memfree                                                                   
00011041  free                                                                         
00011041  mem_Free                                                                     
00011059  _args_main                                                                   
00011071  strcmp                                                                       
00011089  ti_sysbios_BIOS_rtsUnlock__I                                                 
000110a1  ti_sysbios_family_arm_m3_Hwi_Handle__label__S                                
000110a1  ti_sysbios_hal_Hwi_HwiProxy_Handle__label__S                                 
000110b9  ti_sysbios_family_arm_m3_Hwi_Module__startupDone__F                          
000110b9  ti_sysbios_family_arm_m3_Hwi_Module__startupDone__S                          
000110b9  ti_sysbios_hal_Hwi_HwiProxy_Module__startupDone__S                           
000110d1  ti_sysbios_family_arm_m3_TaskSupport_swap__E                                 
000110d1  ti_sysbios_knl_Task_SupportProxy_swap__E                                     
000110dd  ti_sysbios_knl_Task_swapReturn                                               
000110e9  ti_sysbios_family_arm_msp432_Timer_Module__startupDone__F                    
000110e9  ti_sysbios_family_arm_msp432_Timer_Module__startupDone__S                    
000110e9  ti_sysbios_knl_Clock_TimerProxy_Module__startupDone__S                       
00011101  ti_sysbios_gates_GateHwi_Handle__label__S                                    
00011101  xdc_runtime_Main_Module_GateProxy_Handle__label__S                           
00011101  xdc_runtime_System_Module_GateProxy_Handle__label__S                         
00011119  ti_sysbios_gates_GateMutexPri_Handle__label__S                               
00011131  ti_sysbios_BIOS_RtsGateProxy_Handle__label__S                                
00011131  ti_sysbios_gates_GateMutex_Handle__label__S                                  
00011131  ti_sysbios_heaps_HeapMem_Module_GateProxy_Handle__label__S                   
00011149  ti_sysbios_gates_GateMutex_leave__E                                          
00011161  ti_sysbios_heaps_HeapMem_Handle__label__S                                    
00011161  xdc_runtime_Memory_HeapProxy_Handle__label__S                                
00011179  ti_sysbios_knl_Swi_Handle__label__S                                          
00011191  ti_sysbios_knl_Task_Handle__label__S                                         
000111a9  ti_uia_loggers_LoggerStopMode_Handle__label__S                               
000111c1  xdc_runtime_Error_check__E                                                   
000111d9  xdc_runtime_System_exit__E                                                   
000111f1  xdc_runtime_Text_ropeText__E                                                 
00011209  ClockP_delete                                                                
0001121f  HwiP_delete                                                                  
00011235  SemaphoreP_delete                                                            
0001124b  UART_enableInterrupt                                                         
00011261  strchr                                                                       
00011277  ti_sysbios_BIOS_exitFunc__I                                                  
00011291  ti_sysbios_knl_Task_getFunc__E                                               
000112a7  ti_uia_loggers_LoggerStopMode_disable__E                                     
000112bd  ti_uia_loggers_LoggerStopMode_enable__E                                      
000112d5  GPIO_setDriveStrengthHigh                                                    
000112e9  GPIO_setOutputHighOnPin                                                      
000112fd  Power_idleFunc                                                               
00011311  WDT_A_startTimer                                                             
00011325  bmi160_delay_ms                                                              
00011339  _register_unlock                                                             
0001133f  _register_lock                                                               
00011347  _nop                                                                         
0001134d  copysign                                                                     
0001134d  copysignl                                                                    
00011361  strcpy                                                                       
00011375  strlen                                                                       
00011389  ti_sysbios_family_arm_m3_Hwi_Object__get__S                                  
000113a1  ti_sysbios_family_arm_m3_Hwi_switchFromBootStack__E                          
000113a1  ti_sysbios_hal_Hwi_HwiProxy_switchFromBootStack__E                           
000113b5  ti_sysbios_heaps_HeapMem_Object__get__S                                      
000113c9  ti_sysbios_knl_Swi_Object__get__S                                            
000113dd  ti_sysbios_knl_Task_Object__first__S                                         
000113f1  ti_sysbios_knl_Task_Object__get__S                                           
00011405  ti_sysbios_knl_Task_Object__next__S                                          
00011419  ClockP_start                                                                 
00011419  ClockP_startFromISR                                                          
0001142b  RingBuf_construct                                                            
0001143d  SemaphoreP_pend                                                              
0001144f  copysignf                                                                    
00011461  ti_sysbios_hal_Hwi_Module_startup__E                                         
00011473  xdc_runtime_Startup_exec__I                                                  
00011485  GPIO_getInterruptStatus                                                      
00011495  I2C_Params_init                                                              
000114a5  I2C_masterReceiveMultiByteStop                                               
000114b5  I2C_masterReceiveStart                                                       
000114c5  I2C_masterSendStart                                                          
000114d5  PCM_gotoLPM4                                                                 
000114f9  ti_sysbios_BIOS_getCpuFreq__E                                                
000114f9  ti_sysbios_family_arm_m3_TimestampProvider_getFreq__E                        
000114f9  xdc_runtime_Timestamp_SupportProxy_getFreq__E                                
00011509  ti_sysbios_BIOS_setCpuFreq__E                                                
00011519  ti_sysbios_BIOS_setThreadType__E                                             
00011529  osi_start                                                                    
00011529  ti_sysbios_BIOS_start__E                                                     
00011539  ti_sysbios_family_arm_m3_TaskSupport_glue                                    
00011549  ti_sysbios_family_arm_msp432_init_Boot_disableWatchdog                       
00011559  ti_sysbios_gates_GateMutexPri_Instance_finalize__E                           
00011569  ti_sysbios_gates_GateMutex_Instance_finalize__E                              
00011579  ti_sysbios_knl_Mailbox_Object__get__S                                        
00011589  ti_sysbios_knl_Semaphore_Instance_finalize__E                                
00011599  ti_sysbios_knl_Swi_disable__E                                                
000115a9  osi_TaskDisable                                                              
000115a9  ti_sysbios_knl_Task_disable__E                                               
000115b9  ti_uia_loggers_LoggerStopMode_Object__get__S                                 
000115c9  ti_uia_loggers_LoggerStopMode_isEmpty__E                                     
000115d9  xdc_runtime_Gate_leaveSystem__E                                              
000115e9  xdc_runtime_Memory_free__E                                                   
000115f9  xdc_runtime_SysMin_ready__E                                                  
000115f9  xdc_runtime_System_SupportProxy_ready__E                                     
00011609  xdc_runtime_System_vsnprintf__E                                              
00011619  HwiP_Params_init                                                             
00011627  I2C_clearInterruptFlag                                                       
00011635  I2C_disableInterrupt                                                         
00011643  I2C_setMode                                                                  
00011651  UART_clearInterruptFlag                                                      
0001165f  __TI_decompress_none                                                         
00011671  ti_sysbios_knl_Idle_loop__E                                                  
00011681  ti_sysbios_knl_Queue_empty__E                                                
0001168f  ti_sysbios_family_arm_msp432_init_Boot_init__I                               
0001168f  xdc_runtime_Startup_reset__I                                                 
0001169b  CPU_cpsid                                                                    
000116a7  CPU_cpsie                                                                    
000116b3  I2C_disableModule                                                            
000116bf  I2C_enableModule                                                             
000116cd  PCM_getPowerState                                                            
000116d9  Power_getConstraintMask                                                      
000116e5  Power_getPerformanceLevel                                                    
000116f1  UARTMSP432_init                                                              
000116fd  UART_disableModule                                                           
00011709  UART_enableModule                                                            
00011715  __TI_zero_init                                                               
00011721  ti_sysbios_family_arm_m3_Hwi_Params__init__S                                 
00011721  ti_sysbios_hal_Hwi_HwiProxy_Params__init__S                                  
00011731  ti_sysbios_family_arm_m3_Hwi_disableFxn__E                                   
00011731  ti_sysbios_hal_Hwi_HwiProxy_disable__E                                       
00011741  ti_sysbios_family_arm_m3_TaskSupport_checkStack__E                           
00011741  ti_sysbios_knl_Task_SupportProxy_checkStack__E                               
00011751  ti_sysbios_family_arm_m3_TaskSupport_getStackAlignment__E                    
00011751  ti_sysbios_knl_Task_SupportProxy_getStackAlignment__E                        
00011761  ti_sysbios_family_arm_m3_TimestampProvider_startTimer__E                     
00011771  ti_sysbios_family_arm_msp432_Timer_getMaxTicks__E                            
00011781  ti_sysbios_gates_GateHwi_enter__E                                            
0001178d  ti_sysbios_gates_GateMutexPri_Params__init__S                                
00011799  ti_sysbios_knl_Clock_Params__init__S                                         
000117a9  ClockP_getSystemTicks                                                        
000117a9  ti_sysbios_knl_Clock_getTicks__E                                             
000117b5  ti_sysbios_knl_Mailbox_Params__init__S                                       
000117c1  ti_sysbios_knl_Queue_Object__get__S                                          
000117cd  ti_sysbios_knl_Semaphore_Params__init__S                                     
000117d9  ti_sysbios_knl_Task_Params__init__S                                          
000117e9  ti_sysbios_knl_Task_self__E                                                  
000117f9  ti_sysbios_utils_Load_taskRegHook__E                                         
00011805  xdc_runtime_Error_init__E                                                    
00011811  xdc_runtime_Gate_enterSystem__E                                              
0001181d  xdc_runtime_Memory_calloc__E                                                 
00011829  xdc_runtime_Memory_getMaxDefaultTypeAlign__E                                 
00011835  xdc_runtime_Startup_rtsDone__E                                               
00011841  ClockP_stop                                                                  
00011841  ClockP_stopFromISR                                                           
0001184b  I2CMSP432_init                                                               
00011855  I2C_transfer                                                                 
0001185f  SemaphoreP_post                                                              
0001185f  SemaphoreP_postFromClock                                                     
0001185f  SemaphoreP_postFromISR                                                       
00011869  UART_write                                                                   
00011873  xdc_runtime_Memory_HeapProxy_alloc__E                                        
0001187d  xdc_runtime_Memory_HeapProxy_free__E                                         
00011887  xdc_runtime_Text_visitRope__I                                                
00011891  ClockP_Params_init                                                           
00011899  I2C_enableInterrupt                                                          
000118a1  PCM_setPowerMode                                                             
000118a9  PCM_setPowerState                                                            
000118b1  SemaphoreP_Params_init                                                       
000118b9  arm_mat_init_f32                                                             
000118d1  _ZdlPv                                                                       
000118d9  ti_sysbios_family_arm_m3_Hwi_doSwiRestore__I                                 
000118e1  ti_sysbios_family_arm_m3_Hwi_startup__E                                      
000118e1  ti_sysbios_hal_Hwi_HwiProxy_startup__E                                       
000118f1  I2C_getInterruptStatus                                                       
000118f7  I2C_masterReceiveMultiByteNext                                               
000118fd  UART_getInterruptStatus                                                      
00011903  UART_queryStatusFlags                                                        
00011909  __cxa_pure_virtual                                                           
00011911  HwiP_restore                                                                 
00011911  ti_sysbios_family_arm_m3_Hwi_restoreFxn__E                                   
00011911  ti_sysbios_hal_Hwi_HwiProxy_restore__E                                       
00011919  ti_sysbios_gates_GateHwi_leave__E                                            
00011921  ti_sysbios_heaps_HeapMem_isBlocking__E                                       
00011929  ti_sysbios_knl_Clock_stop__E                                                 
00011931  ti_sysbios_knl_Queue_Instance_init__E                                        
00011939  ti_sysbios_knl_Swi_startup__E                                                
0001193f  xdc_runtime_System_Module_startup__E                                         
00011949  ti_sysbios_gates_GateHwi_query__E                                            
00011949  xdc_runtime_Main_Module_GateProxy_query__E                                   
00011949  xdc_runtime_System_Module_GateProxy_query__E                                 
00011951  ti_sysbios_gates_GateMutexPri_query__E                                       
00011959  ti_sysbios_BIOS_RtsGateProxy_query__E                                        
00011959  ti_sysbios_gates_GateMutex_query__E                                          
00011959  ti_sysbios_heaps_HeapMem_Module_GateProxy_query__E                           
00011961  ti_sysbios_knl_Clock_setTimeout__E                                           
00011969  ti_sysbios_knl_Task_getEnv__E                                                
00011971  ti_sysbios_knl_Task_getPri__E                                                
00011979  ti_sysbios_knl_Task_setEnv__E                                                
00011981  ti_sysbios_knl_Task_startup__E                                               
00011989  ti_sysbios_BIOS_linkedWithIncorrectBootLibrary__E                            
00011991  ti_sysbios_family_arm_m3_TimestampProvider_rolloverFunc__E                   
00011999  ti_sysbios_gates_GateHwi_Instance_init__E                                    
0001199c  xdc_runtime_Text_charTab__A                                                  
000132fc  _ctypes_                                                                     
000133fd  _ZTSe                                                                        
000133ff  xdc_runtime_Error_policy__C                                                  
00013400  uartMSP432Baudrates                                                          
00013470  ti_uia_loggers_LoggerStopMode_Module__FXNS__C                                
00013518  uartMSP432HWAttrs                                                            
000135a0  ti_sysbios_knl_Task_Object__PARAMS__C                                        
000135dc  ti_sysbios_knl_Mailbox_Object__PARAMS__C                                     
00013610  ti_sysbios_family_arm_m3_Hwi_Object__PARAMS__C                               
00013640  xdc_runtime_Startup_sfxnTab__A                                               
00013670  _ZTSN10__cxxabiv123__fundamental_type_infoE                                  
00013698  UARTMSP432_fxnTable                                                          
000136c0  ti_sysbios_heaps_HeapMem_Module__FXNS__C                                     
000136e8  ti_uia_loggers_LoggerStopMode_Object__PARAMS__C                              
00013710  _ZTSN10__cxxabiv120__si_class_type_infoE                                     
00013735  _ZTSN10__cxxabiv119__pointer_type_infoE                                      
0001375a  ti_sysbios_family_arm_m3_Hwi_Module__id__C                                   
0001375c  UART_config                                                                  
00013780  UART_defaultParams                                                           
000137c8  ti_sysbios_gates_GateHwi_Module__FXNS__C                                     
000137ec  ti_sysbios_gates_GateMutexPri_Module__FXNS__C                                
00013810  ti_sysbios_gates_GateMutex_Module__FXNS__C                                   
00013834  ti_sysbios_heaps_HeapMem_Object__PARAMS__C                                   
00013858  ti_sysbios_knl_Clock_Object__PARAMS__C                                       
0001387c  ti_sysbios_knl_Semaphore_Object__PARAMS__C                                   
000138a0  _ZTSN10__cxxabiv117__class_type_infoE                                        
000138c2  _ZTSN10__cxxabiv117__pbase_type_infoE                                        
000138e4  _ZTV13kalman_filter                                                          
00013904  _ZTV14sensor_control                                                         
00013924  _ZTVN4MAES13USER_DEF_CONDE                                                   
00013944  _ZTVN4MAES15CyclicBehaviourE                                                 
00013964  _ZTVN4MAES16OneShotBehaviourE                                                
00013984  _ZTVN4MAES17Generic_BehaviourE                                               
000139a4  I2CMSP432_fxnTable                                                           
000139c4  ti_sysbios_family_arm_m3_Hwi_Object__DESC__C                                 
000139e4  ti_sysbios_gates_GateHwi_Object__DESC__C                                     
00013a04  ti_sysbios_gates_GateMutexPri_Object__DESC__C                                
00013a24  ti_sysbios_gates_GateMutex_Object__DESC__C                                   
00013a44  ti_sysbios_heaps_HeapMem_Object__DESC__C                                     
00013a64  ti_sysbios_knl_Clock_Object__DESC__C                                         
00013a84  ti_sysbios_knl_Mailbox_Object__DESC__C                                       
00013aa4  ti_sysbios_knl_Queue_Object__DESC__C                                         
00013ac4  ti_sysbios_knl_Semaphore_Object__DESC__C                                     
00013ae4  ti_sysbios_knl_Task_Object__DESC__C                                          
00013b04  ti_uia_loggers_LoggerStopMode_Object__DESC__C                                
00013b24  _ZTSN4MAES17Generic_BehaviourE                                               
00013b3f  _ZTSN4MAES16OneShotBehaviourE                                                
00013b59  _ZTSN4MAES15CyclicBehaviourE                                                 
00013b72  ti_sysbios_family_arm_m3_Hwi_Module__loggerDefined__C                        
00013b8c  _ZZN14sensor_control5setupEvEs                                               
00013ba4  I2C_config                                                                   
00013bbc  ti_sysbios_gates_GateHwi_Object__PARAMS__C                                   
00013bd4  ti_sysbios_gates_GateMutexPri_Object__PARAMS__C                              
00013bec  ti_sysbios_gates_GateMutex_Object__PARAMS__C                                 
00013c04  ti_sysbios_knl_Queue_Object__PARAMS__C                                       
00013c1c  ti_sysbios_knl_Task_hooks__A                                                 
00013c34  xdc_runtime_Startup_sfxnRts__A                                               
00013c4c  _ZTSN4MAES13USER_DEF_CONDE                                                   
00013c63  _ZZN14sensor_control5setupEvEs_3                                             
00013c79  _ZZN14sensor_control5setupEvEs_1                                             
00013c8e  ti_sysbios_family_arm_m3_Timer_Module__id__C                                 
00013c90  GPIOMSP432_config                                                            
00013ca4  _ZZN14sensor_control5setupEvEs_2                                             
00013cb7  _ZZN14sensor_control5setupEvEs_0                                             
00013cc9  _ZTS14sensor_control                                                         
00013cda  ti_sysbios_family_arm_m3_TimestampProvider_configTimer__C                    
00013cdc  _ZTIPKe                                                                      
00013cec  _ZTS13kalman_filter                                                          
00013cfc  PowerMSP432_config                                                           
00013d0c  _ZTVN10__cxxabiv117__class_type_infoE                                        
00013d1c  _ZTVN10__cxxabiv119__pointer_type_infoE                                      
00013d2c  _ZTVN10__cxxabiv120__si_class_type_infoE                                     
00013d3c  _ZTVN10__cxxabiv123__fundamental_type_infoE                                  
00013d4c  I2C_defaultParams                                                            
00013d5c  i2cMSP432HWAttrs                                                             
00013d6c  xdc_runtime_Text_nodeTab__A                                                  
00013d7c  _ZTSSt9type_info                                                             
00013d96  ti_sysbios_gates_GateMutexPri_Module__id__C                                  
00013d98  _ZTI13kalman_filter                                                          
00013da4  _ZTI14sensor_control                                                         
00013db0  _ZTIN10__cxxabiv117__class_type_infoE                                        
00013dbc  _ZTIN10__cxxabiv117__pbase_type_infoE                                        
00013dc8  _ZTIN10__cxxabiv119__pointer_type_infoE                                      
00013dd4  _ZTIN10__cxxabiv120__si_class_type_infoE                                     
00013de0  _ZTIN10__cxxabiv123__fundamental_type_infoE                                  
00013dec  _ZTIN4MAES15CyclicBehaviourE                                                 
00013df8  _ZTIN4MAES16OneShotBehaviourE                                                
00013e04  ti_sysbios_knl_Idle_funcList__A                                              
00013e10  xdc_runtime_Startup_firstFxns__A                                             
00013e1c  _ZTIN4MAES13USER_DEF_CONDE                                                   
00013e24  _ZTIN4MAES17Generic_BehaviourE                                               
00013e2c  _ZTISt9type_info                                                             
00013e34  _ZTIe                                                                        
00013e3c  ti_sysbios_family_arm_m3_Hwi_excHookFuncs__A                                 
00013e44  ti_sysbios_knl_Idle_funcList__C                                              
00013e4c  ti_sysbios_knl_Task_hooks__C                                                 
00013e54  xdc_runtime_Startup_firstFxns__C                                             
00013e5c  xdc_runtime_Startup_lastFxns__C                                              
00013e69  _ZTSPKe                                                                      
00013e6e  ti_sysbios_gates_GateMutex_Module__id__C                                     
00013e70  ti_sysbios_family_arm_m3_Hwi_E_NMI__C                                        
00013e74  ti_sysbios_family_arm_m3_Hwi_E_alreadyDefined__C                             
00013e78  ti_sysbios_family_arm_m3_Hwi_E_busFault__C                                   
00013e7c  ti_sysbios_family_arm_m3_Hwi_E_debugMon__C                                   
00013e80  ti_sysbios_family_arm_m3_Hwi_E_hardFault__C                                  
00013e84  ti_sysbios_family_arm_m3_Hwi_E_memFault__C                                   
00013e88  ti_sysbios_family_arm_m3_Hwi_E_noIsr__C                                      
00013e8c  ti_sysbios_family_arm_m3_Hwi_E_reserved__C                                   
00013e90  ti_sysbios_family_arm_m3_Hwi_E_svCall__C                                     
00013e94  ti_sysbios_family_arm_m3_Hwi_E_usageFault__C                                 
00013e98  ti_sysbios_family_arm_m3_Hwi_LD_end__C                                       
00013e9c  ti_sysbios_family_arm_m3_Hwi_LM_begin__C                                     
00013ea0  ti_sysbios_family_arm_m3_Hwi_Module__diagsEnabled__C                         
00013ea4  ti_sysbios_family_arm_m3_Hwi_Module__diagsIncluded__C                        
00013ea8  ti_sysbios_family_arm_m3_Hwi_Module__diagsMask__C                            
00013eac  ti_sysbios_family_arm_m3_Hwi_Module__loggerFxn1__C                           
00013eb0  ti_sysbios_family_arm_m3_Hwi_Module__loggerFxn8__C                           
00013eb4  ti_sysbios_family_arm_m3_Hwi_Module__loggerObj__C                            
00013eb8  ti_sysbios_family_arm_m3_Hwi_NUM_INTERRUPTS__C                               
00013ebc  ti_sysbios_family_arm_m3_Hwi_Object__count__C                                
00013ec0  ti_sysbios_family_arm_m3_Hwi_ccr__C                                          
00013ec4  ti_sysbios_family_arm_m3_Hwi_excHandlerFunc__C                               
00013ec8  ti_sysbios_family_arm_m3_Hwi_excHookFuncs__C                                 
00013ecc  ti_sysbios_family_arm_m3_Hwi_nullIsrFunc__C                                  
00013ed0  ti_sysbios_family_arm_m3_Hwi_priGroup__C                                     
00013ed4  ti_sysbios_family_arm_m3_TaskSupport_stackAlignment__C                       
00013ed8  ti_sysbios_family_arm_m3_Timer_E_cannotSupport__C                            
00013edc  ti_sysbios_family_arm_m3_Timer_startupNeeded__C                              
00013ee0  ti_sysbios_family_arm_msp432_Timer_numTimerDevices__C                        
00013ee4  ti_sysbios_family_arm_msp432_Timer_startupNeeded__C                          
00013ee8  ti_sysbios_gates_GateMutexPri_A_badContext__C                                
00013eec  ti_sysbios_gates_GateMutexPri_A_enterTaskDisabled__C                         
00013ef0  ti_sysbios_gates_GateMutexPri_Instance_State_pendQ__O                        
00013ef4  ti_sysbios_gates_GateMutexPri_Module__diagsEnabled__C                        
00013ef8  ti_sysbios_gates_GateMutexPri_Module__diagsIncluded__C                       
00013efc  ti_sysbios_gates_GateMutexPri_Module__diagsMask__C                           
00013f00  ti_sysbios_gates_GateMutex_A_badContext__C                                   
00013f04  ti_sysbios_gates_GateMutex_Instance_State_sem__O                             
00013f08  ti_sysbios_gates_GateMutex_Module__diagsEnabled__C                           
00013f0c  ti_sysbios_gates_GateMutex_Module__diagsIncluded__C                          
00013f10  ti_sysbios_gates_GateMutex_Module__diagsMask__C                              
00013f14  ti_sysbios_hal_Hwi_E_stackOverflow__C                                        
00013f18  ti_sysbios_heaps_HeapMem_A_align__C                                          
00013f1c  ti_sysbios_heaps_HeapMem_A_heapSize__C                                       
00013f20  ti_sysbios_heaps_HeapMem_A_invalidFree__C                                    
00013f24  ti_sysbios_heaps_HeapMem_A_zeroBlock__C                                      
00013f28  ti_sysbios_heaps_HeapMem_E_memory__C                                         
00013f2c  ti_sysbios_heaps_HeapMem_Module__diagsEnabled__C                             
00013f30  ti_sysbios_heaps_HeapMem_Module__diagsIncluded__C                            
00013f34  ti_sysbios_heaps_HeapMem_Module__diagsMask__C                                
00013f38  ti_sysbios_heaps_HeapMem_Module__gateObj__C                                  
00013f3c  ti_sysbios_heaps_HeapMem_Object__count__C                                    
00013f40  ti_sysbios_heaps_HeapMem_reqAlign__C                                         
00013f44  ti_sysbios_knl_Clock_A_badThreadType__C                                      
00013f48  ti_sysbios_knl_Clock_LM_begin__C                                             
00013f4c  ti_sysbios_knl_Clock_LM_tick__C                                              
00013f50  ti_sysbios_knl_Clock_LW_delayed__C                                           
00013f54  ti_sysbios_knl_Clock_Module_State_clockQ__O                                  
00013f58  ti_sysbios_knl_Clock_Module__diagsEnabled__C                                 
00013f5c  ti_sysbios_knl_Clock_Module__diagsIncluded__C                                
00013f60  ti_sysbios_knl_Clock_Module__diagsMask__C                                    
00013f64  ti_sysbios_knl_Clock_Module__loggerFxn1__C                                   
00013f68  ti_sysbios_knl_Clock_Module__loggerFxn2__C                                   
00013f6c  ti_sysbios_knl_Clock_Module__loggerObj__C                                    
00013f70  ti_sysbios_knl_Mailbox_A_invalidBufSize__C                                   
00013f74  ti_sysbios_knl_Mailbox_Instance_State_dataQue__O                             
00013f78  ti_sysbios_knl_Mailbox_Instance_State_dataSem__O                             
00013f7c  ti_sysbios_knl_Mailbox_Instance_State_freeQue__O                             
00013f80  ti_sysbios_knl_Mailbox_Instance_State_freeSem__O                             
00013f84  ti_sysbios_knl_Mailbox_Module__diagsEnabled__C                               
00013f88  ti_sysbios_knl_Mailbox_Module__diagsIncluded__C                              
00013f8c  ti_sysbios_knl_Mailbox_Module__diagsMask__C                                  
00013f90  ti_sysbios_knl_Mailbox_Object__count__C                                      
00013f94  ti_sysbios_knl_Mailbox_maxTypeAlign__C                                       
00013f98  ti_sysbios_knl_Semaphore_A_badContext__C                                     
00013f9c  ti_sysbios_knl_Semaphore_A_noEvents__C                                       
00013fa0  ti_sysbios_knl_Semaphore_A_overflow__C                                       
00013fa4  ti_sysbios_knl_Semaphore_A_pendTaskDisabled__C                               
00013fa8  ti_sysbios_knl_Semaphore_Instance_State_pendQ__O                             
00013fac  ti_sysbios_knl_Semaphore_LM_pend__C                                          
00013fb0  ti_sysbios_knl_Semaphore_LM_post__C                                          
00013fb4  ti_sysbios_knl_Semaphore_Module__diagsEnabled__C                             
00013fb8  ti_sysbios_knl_Semaphore_Module__diagsIncluded__C                            
00013fbc  ti_sysbios_knl_Semaphore_Module__diagsMask__C                                
00013fc0  ti_sysbios_knl_Semaphore_Module__loggerFxn2__C                               
00013fc4  ti_sysbios_knl_Semaphore_Module__loggerFxn4__C                               
00013fc8  ti_sysbios_knl_Semaphore_Module__loggerObj__C                                
00013fcc  ti_sysbios_knl_Swi_LD_end__C                                                 
00013fd0  ti_sysbios_knl_Swi_LM_begin__C                                               
00013fd4  ti_sysbios_knl_Swi_LM_post__C                                                
00013fd8  ti_sysbios_knl_Swi_Module__diagsEnabled__C                                   
00013fdc  ti_sysbios_knl_Swi_Module__diagsIncluded__C                                  
00013fe0  ti_sysbios_knl_Swi_Module__diagsMask__C                                      
00013fe4  ti_sysbios_knl_Swi_Module__loggerFxn1__C                                     
00013fe8  ti_sysbios_knl_Swi_Module__loggerFxn4__C                                     
00013fec  ti_sysbios_knl_Swi_Module__loggerObj__C                                      
00013ff0  ti_sysbios_knl_Swi_Object__count__C                                          
00013ff4  ti_sysbios_knl_Task_A_badPriority__C                                         
00013ff8  ti_sysbios_knl_Task_A_badTaskState__C                                        
00013ffc  ti_sysbios_knl_Task_A_badThreadType__C                                       
00014000  ti_sysbios_knl_Task_A_badTimeout__C                                          
00014004  ti_sysbios_knl_Task_A_noPendElem__C                                          
00014008  ti_sysbios_knl_Task_A_sleepTaskDisabled__C                                   
0001400c  ti_sysbios_knl_Task_E_spOutOfBounds__C                                       
00014010  ti_sysbios_knl_Task_E_stackOverflow__C                                       
00014014  ti_sysbios_knl_Task_LD_block__C                                              
00014018  ti_sysbios_knl_Task_LD_exit__C                                               
0001401c  ti_sysbios_knl_Task_LD_ready__C                                              
00014020  ti_sysbios_knl_Task_LM_setPri__C                                             
00014024  ti_sysbios_knl_Task_LM_sleep__C                                              
00014028  ti_sysbios_knl_Task_LM_switch__C                                             
0001402c  ti_sysbios_knl_Task_LM_yield__C                                              
00014030  ti_sysbios_knl_Task_Module_State_inactiveQ__O                                
00014034  ti_sysbios_knl_Task_Module__diagsEnabled__C                                  
00014038  ti_sysbios_knl_Task_Module__diagsIncluded__C                                 
0001403c  ti_sysbios_knl_Task_Module__diagsMask__C                                     
00014040  ti_sysbios_knl_Task_Module__loggerFxn2__C                                    
00014044  ti_sysbios_knl_Task_Module__loggerFxn4__C                                    
00014048  ti_sysbios_knl_Task_Module__loggerObj__C                                     
0001404c  ti_sysbios_knl_Task_Object__count__C                                         
00014050  ti_sysbios_knl_Task_Object__heap__C                                          
00014054  ti_sysbios_knl_Task_allBlockedFunc__C                                        
00014058  ti_sysbios_knl_Task_defaultStackHeap__C                                      
0001405c  ti_sysbios_knl_Task_defaultStackSize__C                                      
00014060  ti_sysbios_knl_Task_numConstructedTasks__C                                   
00014064  ti_sysbios_knl_Task_numPriorities__C                                         
00014068  ti_sysbios_utils_Load_LS_cpuLoad__C                                          
0001406c  ti_sysbios_utils_Load_LS_taskLoad__C                                         
00014070  ti_sysbios_utils_Load_Module_State_taskList__O                               
00014074  ti_sysbios_utils_Load_Module__diagsEnabled__C                                
00014078  ti_sysbios_utils_Load_Module__diagsIncluded__C                               
0001407c  ti_sysbios_utils_Load_Module__diagsMask__C                                   
00014080  ti_sysbios_utils_Load_Module__loggerFxn1__C                                  
00014084  ti_sysbios_utils_Load_Module__loggerFxn4__C                                  
00014088  ti_sysbios_utils_Load_Module__loggerObj__C                                   
0001408c  ti_sysbios_utils_Load_postUpdate__C                                          
00014090  ti_sysbios_utils_Load_windowInMs__C                                          
00014094  ti_uia_loggers_LoggerStopMode_Module__diagsEnabled__C                        
00014098  ti_uia_loggers_LoggerStopMode_Module__diagsIncluded__C                       
0001409c  ti_uia_loggers_LoggerStopMode_Module__diagsMask__C                           
000140a0  ti_uia_loggers_LoggerStopMode_Object__count__C                               
000140a4  ti_uia_runtime_ILoggerSnapshot_Interface__BASE__C                            
000140a8  ti_uia_runtime_IUIATransfer_Interface__BASE__C                               
000140ac  xdc_runtime_Assert_E_assertFailed__C                                         
000140b0  xdc_runtime_Core_A_initializedParams__C                                      
000140b4  xdc_runtime_Core_Module__diagsEnabled__C                                     
000140b8  xdc_runtime_Core_Module__diagsIncluded__C                                    
000140bc  xdc_runtime_Core_Module__diagsMask__C                                        
000140c0  xdc_runtime_Error_E_memory__C                                                
000140c4  xdc_runtime_Error_Module__diagsEnabled__C                                    
000140c8  xdc_runtime_Error_Module__diagsIncluded__C                                   
000140cc  xdc_runtime_Error_Module__diagsMask__C                                       
000140d0  xdc_runtime_Error_Module__loggerFxn8__C                                      
000140d4  xdc_runtime_Error_Module__loggerObj__C                                       
000140d8  xdc_runtime_Error_policyFxn__C                                               
000140dc  xdc_runtime_Error_raiseHook__C                                               
000140e0  xdc_runtime_IFilterLogger_Interface__BASE__C                                 
000140e4  xdc_runtime_IGateProvider_Interface__BASE__C                                 
000140e8  xdc_runtime_IHeap_Interface__BASE__C                                         
000140ec  xdc_runtime_ILogger_Interface__BASE__C                                       
000140f0  xdc_runtime_IModule_Interface__BASE__C                                       
000140f4  xdc_runtime_Log_L_error__C                                                   
000140f8  xdc_runtime_Memory_defaultHeapInstance__C                                    
000140fc  xdc_runtime_Startup_execImpl__C                                              
00014100  xdc_runtime_Startup_lastFxns__A                                              
00014104  xdc_runtime_Startup_maxPasses__C                                             
00014108  xdc_runtime_Startup_sfxnRts__C                                               
0001410c  xdc_runtime_Startup_sfxnTab__C                                               
00014110  xdc_runtime_SysMin_bufSize__C                                                
00014114  xdc_runtime_SysMin_outputFunc__C                                             
00014118  xdc_runtime_System_Module__gateObj__C                                        
0001411c  xdc_runtime_System_abortFxn__C                                               
00014120  xdc_runtime_System_exitFxn__C                                                
00014124  xdc_runtime_System_extendFxn__C                                              
00014128  xdc_runtime_System_maxAtexitHandlers__C                                      
0001412c  xdc_runtime_Text_charTab__C                                                  
00014130  xdc_runtime_Text_nameEmpty__C                                                
00014134  xdc_runtime_Text_nameStatic__C                                               
00014138  xdc_runtime_Text_nameUnknown__C                                              
0001413c  xdc_runtime_Text_nodeTab__C                                                  
00014140  xdc_runtime_Text_visitRopeFxn__C                                             
00014144  ti_sysbios_hal_Hwi_Module__id__C                                             
00014146  ti_sysbios_heaps_HeapMem_Module__id__C                                       
00014148  ti_sysbios_knl_Clock_Module__id__C                                           
0001414a  ti_sysbios_knl_Clock_Module__loggerDefined__C                                
0001414c  ti_sysbios_knl_Mailbox_Module__id__C                                         
0001414e  ti_sysbios_knl_Semaphore_Module__id__C                                       
00014150  ti_sysbios_knl_Semaphore_Module__loggerDefined__C                            
00014152  ti_sysbios_knl_Swi_Module__id__C                                             
00014154  ti_sysbios_knl_Swi_Module__loggerDefined__C                                  
00014156  ti_sysbios_knl_Task_Module__id__C                                            
00014158  ti_sysbios_knl_Task_Module__loggerDefined__C                                 
0001415a  ti_sysbios_utils_Load_Module__id__C                                          
0001415c  ti_sysbios_utils_Load_Module__loggerDefined__C                               
0001415e  ti_sysbios_utils_Load_autoAddTasks__C                                        
00014160  ti_sysbios_utils_Load_updateInIdle__C                                        
00014162  ti_uia_loggers_LoggerStopMode_Module__id__C                                  
00014164  ti_uia_loggers_LoggerStopMode_isTimestampEnabled__C                          
00014166  xdc_runtime_Core_Module__id__C                                               
00014168  xdc_runtime_Error_Module__loggerDefined__C                                   
0001416a  xdc_runtime_Error_maxDepth__C                                                
0001416c  xdc_runtime_Memory_Module__id__C                                             
0001416e  xdc_runtime_SysMin_flushAtExit__C                                            
00014170  xdc_runtime_Text_charCnt__C                                                  
00014172  xdc_runtime_Text_isLoaded__C                                                 
00014174  xdc_runtime_Text_registryModsLastId__C                                       
00014176  xdc_runtime_Text_unnamedModsLastId__C                                        
00014178  __TI_static_base__                                                           
00014474  __TI_Handler_Table_Base                                                      
00014480  __TI_Handler_Table_Limit                                                     
00014490  __TI_CINIT_Base                                                              
000144a8  __TI_CINIT_Limit                                                             
20000000  ti_sysbios_family_arm_m3_Hwi_ramVectors                                      
20000180  ti_sysbios_heaps_HeapMem_Instance_State_0_buf__A                             
20002180  AP                                                                           
200032b0  KALMANSTACK                                                                  
200042b0  i2cMSP432Objects                                                             
20004300  ti_uia_loggers_LoggerStopMode_Instance_State_0_packetArray__A                
20005300  SENSORSTACK                                                                  
20005b00  UARTSTACK                                                                    
20006300  accel_fifo                                                                   
2000666c  gyro_fifo                                                                    
200069d8  mag_fifo                                                                     
20006d48  ti_sysbios_knl_Task_Instance_State_0_stack__A                                
20006f78  Eg                                                                           
20006f80  ti_uia_loggers_LoggerStopMode_Instance_State_1_packetArray__A                
20007180  PData                                                                        
20007310  PhiData                                                                      
200074a0  QData                                                                        
20007630  ti_sysbios_family_arm_m3_Hwi_dispatchTable                                   
20007770  stringBuffer                                                                 
20007898  __CIOBUF_                                                                    
200079b8  uartMSP432Objects                                                            
20007ab8  FData                                                                        
20007ba8  KData                                                                        
20007c98  RData                                                                        
20007d28  xdc_runtime_SysMin_Module_State_0_outbuf__A                                  
20007da8  OmegaData                                                                    
20007de8  uartMSP432RingBuffer                                                         
20007e28  XiData                                                                       
20007e58  xData                                                                        
20007e80  ti_uia_loggers_LoggerStopMode_Instance_State_0_hdr__A                        
20007eb0  Kalman_Agent                                                                 
20007ed4  Sensor_Agent                                                                 
20007ef8  F                                                                            
20007f00  ti_uia_loggers_LoggerStopMode_Instance_State_1_hdr__A                        
20007f30  UART_Agent                                                                   
20007f54  EgData                                                                       
20007f78  uartParams                                                                   
20007f9c  rxBuffer                                                                     
20007fbc  i2cTransaction                                                               
20007fd8  fData                                                                        
20007ff0  gateParams                                                                   
20008008  zData                                                                        
20008020  s_bmi160                                                                     
20008044  i2cParams                                                                    
20008054  gData                                                                        
20008060  gyro_measData                                                                
2000806c  gyro_meas_nextData                                                           
20008078  hData                                                                        
20008084  s_magcompXYZ                                                                 
20008090  sigmaWaData                                                                  
2000809c  sigmaWmData                                                                  
200080a8  sigmaaData                                                                   
200080b4  sigmagData                                                                   
200080c0  sigmamData                                                                   
200080cc  txBuffer                                                                     
200080d8  K                                                                            
200080e0  Omega                                                                        
200080e8  P                                                                            
200080f0  Phi                                                                          
200080f8  Q                                                                            
20008100  R                                                                            
20008108  Xi                                                                           
20008110  f                                                                            
20008118  g                                                                            
20008120  gyro_meas                                                                    
20008128  gyro_meas_next                                                               
20008130  h                                                                            
20008138  sigmaWa                                                                      
20008140  sigmaWm                                                                      
20008148  sigmaa                                                                       
20008150  sigmag                                                                       
20008158  sigmam                                                                       
20008160  x                                                                            
20008168  z                                                                            
20008170  accelxyz                                                                     
20008176  gyroxyz                                                                      
2000817c  s_accelXYZ                                                                   
20008182  s_gyroXYZ                                                                    
20008188  Kalman_AID                                                                   
2000818c  Sensor_AID                                                                   
20008190  UART_AID                                                                     
20008194  _ZSt16__dummy_typeinfo                                                       
20008198  accSens                                                                      
2000819c  gatekey                                                                      
200081a0  gyroSens                                                                     
200081a4  i2c                                                                          
200081a8  i2cGate                                                                      
200081ac  magSens                                                                      
200081b0  ti_sysbios_knl_Task_Instance_State_0_hookEnv__A                              
200081b4  ts                                                                           
200081b8  uart                                                                         
200081bc  gyro_off_x                                                                   
200081be  gyro_off_y                                                                   
200081c0  gyro_off_z                                                                   
200081c2  accel_off_x                                                                  
200081c3  accel_off_y                                                                  
200081c4  accel_off_z                                                                  
200081c8  v_fifo_data_u8                                                               
200085c8  ti_sysbios_knl_Task_Module_State_0_readyQ__A                                 
200086c8  PowerMSP432_perfLevels                                                       
20008764  ti_sysbios_utils_Load_Module__state__V                                       
200087fc  ti_sysbios_knl_Swi_Module_State_0_readyQ__A                                  
2000887c  ti_uia_loggers_LoggerStopMode_Object__table__V                               
200088e4  ti_sysbios_knl_Task_Object__table__V                                         
20008934  ti_sysbios_family_arm_msp432_Timer_Object__table__V                          
20008980  ti_sysbios_knl_Task_Module__state__V                                         
200089c4  ti_sysbios_gates_GateMutex_Object__table__V                                  
200089fc  ti_sysbios_family_arm_m3_Hwi_Module__state__V                                
20008a60  ti_sysbios_family_arm_m3_Hwi_Object__table__V                                
20008a90  ti_sysbios_family_arm_m3_Timer_Object__table__V                              
20008ac0  ti_sysbios_knl_Swi_Object__table__V                                          
20008af0  ti_sysbios_knl_Clock_Module__state__V                                        
20008b1c  PowerMSP432_module                                                           
20008b44  ti_sysbios_BIOS_Module__state__V                                             
20008b68  ti_sysbios_family_arm_msp432_Timer_Module_State_0_device__A                  
20008b88  ti_sysbios_knl_Swi_Module__state__V                                          
20008ba4  ti_sysbios_utils_Load_Module_State_0_taskEnv__A                              
20008bc0  ti_sysbios_heaps_HeapMem_Object__table__V                                    
20008bd8  gpioPinConfigs                                                               
20008be8  ti_sysbios_family_arm_msp432_Timer_Module_State_0_handles__A                 
20008bf8  __TI_cleanup_ptr                                                             
20008bfc  __TI_dtors_ptr                                                               
20008c00  __TI_enable_exit_profile_output                                              
20008c04  ti_sysbios_family_arm_m3_Timer_Module__state__V                              
20008c10  ti_sysbios_family_arm_msp432_ClockFreqs_Module__state__V                     
20008c1c  ti_sysbios_family_arm_msp432_Timer_Module__state__V                          
20008c28  ti_sysbios_knl_Task_Module__root__V                                          
20008c34  ti_uia_runtime_QueueDescriptor_Module__state__V                              
20008c40  xdc_runtime_SysMin_Module__state__V                                          
20008c4c  _lock                                                                        
20008c50  _unlock                                                                      
20008c54  V_bmm150_maual_auto_condition_u8                                             
20008c58  V_fifo_time_U32                                                              
20008c5c  gpioCallbackFunctions                                                        
20008c64  ti_uia_runtime_QueueDescriptor_gPtrToFirstDescriptor                         
20008c68  ti_uia_runtime_QueueDescriptor_gUpdateCount                                  
20008c6c  ti_sysbios_family_arm_m3_Hwi_Module__root__V                                 
20008c74  ti_sysbios_gates_GateHwi_Module__root__V                                     
20008c7c  ti_sysbios_gates_GateMutexPri_Module__root__V                                
20008c84  ti_sysbios_gates_GateMutex_Module__root__V                                   
20008c8c  ti_sysbios_heaps_HeapMem_Module__root__V                                     
20008c94  ti_sysbios_knl_Clock_Module__root__V                                         
20008c9c  ti_sysbios_knl_Mailbox_Module__root__V                                       
20008ca4  ti_sysbios_knl_Queue_Module__root__V                                         
20008cac  ti_sysbios_knl_Semaphore_Module__root__V                                     
20008cb4  ti_uia_loggers_LoggerStopMode_Module__root__V                                
20008cbc  xdc_runtime_Registry_Module__state__V                                        
20008cc4  xdc_runtime_Startup_Module__state__V                                         
20008ccc  xdc_runtime_System_Module_State_0_atexitHandlers__A                          
20008cd4  xdc_runtime_System_Module__state__V                                          
20008ce4  errno                                                                        
20008ce8  main_func_sp                                                                 
20008cec  ti_sysbios_family_arm_m3_Hwi_Module_State_0_excContext__A                    
20008cf0  ti_sysbios_family_arm_m3_Hwi_Module_State_0_excStack__A                      
20008cf4  ti_sysbios_family_arm_m3_TimestampProvider_Module__state__V                  
20008cf8  ti_sysbios_gates_GateHwi_Object__table__V                                    
20008cfc  ti_sysbios_knl_Task_Module_State_0_idleTask__A                               
20008d00  ti_sysbios_utils_Load_Module_State_0_runningTask__A                          
20008d04  ti_sysbios_utils_Load_Module_State_0_taskStartTime__A                        
20008d08  xdc_runtime_Memory_Module__state__V                                          
20008d0c  ti_sysbios_family_arm_m3_Hwi_Module_State_0_excActive__A                     
20008d0e  xdc_runtime_Error_Module__state__V                                           
2000fd00  __stack                                                                      
20010000  __STACK_END                                                                  
4000480c  WDTCTL_SYM                                                                   
e000e000  ti_sysbios_family_arm_m3_Hwi_nvic                                            
ffffffff  __TI_pprof_out_hndl                                                          
ffffffff  __TI_prof_data_size                                                          
ffffffff  __TI_prof_data_start                                                         
ffffffff  __binit__                                                                    
ffffffff  __c_args__                                                                   
ffffffff  binit                                                                        

[1290 symbols]
